

Microchip MPLAB XC8 Assembler V2.10 build 88905656 
                                                                                               Mon Sep 28 22:59:54 2020

Microchip MPLAB XC8 C Compiler v2.10 (Free license) build 20190730164152 Og1 
     1                           	processor	16F877A
     2                           	opt	pw 120
     3                           	opt	flic
     4                           	psect	idataBANK0,global,class=CODE,delta=2
     5                           	psect	cinit,global,class=CODE,merge=1,delta=2
     6                           	psect	bssBANK0,global,class=BANK0,space=1,delta=1
     7                           	psect	dataBANK0,global,class=BANK0,space=1,delta=1
     8                           	psect	inittext,global,class=CODE,delta=2
     9                           	psect	cstackCOMMON,global,class=COMMON,space=1,delta=1
    10                           	psect	cstackBANK0,global,class=BANK0,space=1,delta=1
    11                           	psect	maintext,global,class=CODE,split=1,delta=2
    12                           	psect	text1,local,class=CODE,merge=1,delta=2,group=1
    13                           	psect	text2,local,class=CODE,merge=1,delta=2,group=1
    14                           	psect	text3,local,class=CODE,merge=1,delta=2
    15                           	psect	text4,local,class=CODE,merge=1,delta=2
    16                           	psect	text5,local,class=CODE,merge=1,delta=2
    17                           	psect	text6,local,class=CODE,merge=1,delta=2
    18                           	psect	text7,local,class=CODE,merge=1,delta=2
    19                           	psect	text8,local,class=CODE,merge=1,delta=2
    20                           	psect	text9,local,class=CODE,merge=1,delta=2
    21                           	psect	text10,local,class=CODE,merge=1,delta=2,group=1
    22                           	psect	text11,local,class=CODE,merge=1,delta=2
    23                           	psect	text12,local,class=CODE,merge=1,delta=2,group=1
    24                           	psect	text13,local,class=CODE,merge=1,delta=2,group=1
    25                           	dabs	1,0x7E,2
    26  0000                     
    27                           ; Version 2.10
    28                           ; Generated 31/07/2019 GMT
    29                           ; 
    30                           ; Copyright © 2019, Microchip Technology Inc. and its subsidiaries ("Microchip")
    31                           ; All rights reserved.
    32                           ; 
    33                           ; This software is developed by Microchip Technology Inc. and its subsidiaries ("Microch
      +                          ip").
    34                           ; 
    35                           ; Redistribution and use in source and binary forms, with or without modification, are
    36                           ; permitted provided that the following conditions are met:
    37                           ; 
    38                           ;     1. Redistributions of source code must retain the above copyright notice, this lis
      +                          t of
    39                           ;        conditions and the following disclaimer.
    40                           ; 
    41                           ;     2. Redistributions in binary form must reproduce the above copyright notice, this 
      +                          list
    42                           ;        of conditions and the following disclaimer in the documentation and/or other
    43                           ;        materials provided with the distribution.
    44                           ; 
    45                           ;     3. Microchip's name may not be used to endorse or promote products derived from th
      +                          is
    46                           ;        software without specific prior written permission.
    47                           ; 
    48                           ; THIS SOFTWARE IS PROVIDED BY MICROCHIP "AS IS" AND ANY EXPRESS OR IMPLIED WARRANTIES,
    49                           ; INCLUDING, BUT NOT LIMITED TO, THE IMPLIED WARRANTIES OF MERCHANTABILITY AND FITNESS F
      +                          OR
    50                           ; PURPOSE ARE DISCLAIMED.  IN NO EVENT SHALL MICROCHIP BE LIABLE FOR ANY DIRECT, INDIREC
      +                          T,
    51                           ; INCIDENTAL, SPECIAL, EXEMPLARY, OR CONSEQUENTIAL DAMAGES (INCLUDING BUT NOT LIMITED TO
    52                           ; PROCUREMENT OF SUBSTITUTE GOODS OR SERVICES; LOSS OF USE, DATA OR PROFITS; OR BUSINESS
    53                           ; INTERRUPTION) HOWSOEVER CAUSED AND ON ANY THEORY OF LIABILITY, WHETHER IN CONTRACT, ST
      +                          RICT
    54                           ; LIABILITY, OR TORT (INCLUDING NEGLIGENCE OR OTHERWISE) ARISING IN ANY WAY OUT OF THE U
      +                          SE OF
    55                           ; THIS SOFTWARE, EVEN IF ADVISED OF THE POSSIBILITY OF SUCH DAMAGE.
    56                           ; 
    57                           ; 
    58                           ; Code-generator required, PIC16F877A Definitions
    59                           ; 
    60                           ; SFR Addresses
    61  0000                     	;# 
    62  0001                     	;# 
    63  0002                     	;# 
    64  0003                     	;# 
    65  0004                     	;# 
    66  0005                     	;# 
    67  0006                     	;# 
    68  0007                     	;# 
    69  0008                     	;# 
    70  0009                     	;# 
    71  000A                     	;# 
    72  000B                     	;# 
    73  000C                     	;# 
    74  000D                     	;# 
    75  000E                     	;# 
    76  000E                     	;# 
    77  000F                     	;# 
    78  0010                     	;# 
    79  0011                     	;# 
    80  0012                     	;# 
    81  0013                     	;# 
    82  0014                     	;# 
    83  0015                     	;# 
    84  0015                     	;# 
    85  0016                     	;# 
    86  0017                     	;# 
    87  0018                     	;# 
    88  0019                     	;# 
    89  001A                     	;# 
    90  001B                     	;# 
    91  001B                     	;# 
    92  001C                     	;# 
    93  001D                     	;# 
    94  001E                     	;# 
    95  001F                     	;# 
    96  0081                     	;# 
    97  0085                     	;# 
    98  0086                     	;# 
    99  0087                     	;# 
   100  0088                     	;# 
   101  0089                     	;# 
   102  008C                     	;# 
   103  008D                     	;# 
   104  008E                     	;# 
   105  0091                     	;# 
   106  0092                     	;# 
   107  0093                     	;# 
   108  0094                     	;# 
   109  0098                     	;# 
   110  0099                     	;# 
   111  009C                     	;# 
   112  009D                     	;# 
   113  009E                     	;# 
   114  009F                     	;# 
   115  010C                     	;# 
   116  010D                     	;# 
   117  010E                     	;# 
   118  010F                     	;# 
   119  018C                     	;# 
   120  018D                     	;# 
   121  0000                     	;# 
   122  0001                     	;# 
   123  0002                     	;# 
   124  0003                     	;# 
   125  0004                     	;# 
   126  0005                     	;# 
   127  0006                     	;# 
   128  0007                     	;# 
   129  0008                     	;# 
   130  0009                     	;# 
   131  000A                     	;# 
   132  000B                     	;# 
   133  000C                     	;# 
   134  000D                     	;# 
   135  000E                     	;# 
   136  000E                     	;# 
   137  000F                     	;# 
   138  0010                     	;# 
   139  0011                     	;# 
   140  0012                     	;# 
   141  0013                     	;# 
   142  0014                     	;# 
   143  0015                     	;# 
   144  0015                     	;# 
   145  0016                     	;# 
   146  0017                     	;# 
   147  0018                     	;# 
   148  0019                     	;# 
   149  001A                     	;# 
   150  001B                     	;# 
   151  001B                     	;# 
   152  001C                     	;# 
   153  001D                     	;# 
   154  001E                     	;# 
   155  001F                     	;# 
   156  0081                     	;# 
   157  0085                     	;# 
   158  0086                     	;# 
   159  0087                     	;# 
   160  0088                     	;# 
   161  0089                     	;# 
   162  008C                     	;# 
   163  008D                     	;# 
   164  008E                     	;# 
   165  0091                     	;# 
   166  0092                     	;# 
   167  0093                     	;# 
   168  0094                     	;# 
   169  0098                     	;# 
   170  0099                     	;# 
   171  009C                     	;# 
   172  009D                     	;# 
   173  009E                     	;# 
   174  009F                     	;# 
   175  010C                     	;# 
   176  010D                     	;# 
   177  010E                     	;# 
   178  010F                     	;# 
   179  018C                     	;# 
   180  018D                     	;# 
   181                           
   182                           	psect	idataBANK0
   183  02BC                     __pidataBANK0:	
   184                           
   185                           ;initializer for _seg
   186  02BC  343F               	retlw	63
   187  02BD  3400               	retlw	0
   188  02BE  3406               	retlw	6
   189  02BF  3400               	retlw	0
   190  02C0  345B               	retlw	91
   191  02C1  3400               	retlw	0
   192  02C2  344F               	retlw	79
   193  02C3  3400               	retlw	0
   194  02C4  3466               	retlw	102
   195  02C5  3400               	retlw	0
   196  02C6  346D               	retlw	109
   197  02C7  3400               	retlw	0
   198  02C8  347D               	retlw	125
   199  02C9  3400               	retlw	0
   200  02CA  3407               	retlw	7
   201  02CB  3400               	retlw	0
   202  02CC  347F               	retlw	127
   203  02CD  3400               	retlw	0
   204  02CE  346F               	retlw	111
   205  02CF  3400               	retlw	0
   206                           
   207                           ;initializer for _dly
   208  02D0  3402               	retlw	2
   209  02D1  3400               	retlw	0
   210                           
   211                           ;initializer for _year
   212  02D2  3412               	retlw	18
   213  02D3  3400               	retlw	0
   214                           
   215                           ;initializer for _month
   216  02D4  3405               	retlw	5
   217  02D5  3400               	retlw	0
   218                           
   219                           ;initializer for _date
   220  02D6  3406               	retlw	6
   221  02D7  3400               	retlw	0
   222                           
   223                           ;initializer for _hour
   224  02D8  340A               	retlw	10
   225  02D9  3400               	retlw	0
   226                           
   227                           ;initializer for _min
   228  02DA  3437               	retlw	55
   229  02DB  3400               	retlw	0
   230                           
   231                           ;initializer for _sec
   232  02DC  3405               	retlw	5
   233  02DD  3400               	retlw	0
   234  0008                     _PORTD	set	8
   235  0006                     _PORTB	set	6
   236  0013                     _SSPBUF	set	19
   237  0014                     _SSPCON	set	20
   238  0030                     _RB0	set	48
   239  0031                     _RB1	set	49
   240  0032                     _RB2	set	50
   241  0033                     _RB3	set	51
   242  0034                     _RB4	set	52
   243  0035                     _RB5	set	53
   244  0088                     _TRISD	set	136
   245  0086                     _TRISB	set	134
   246  0094                     _SSPSTAT	set	148
   247  0093                     _SSPADD	set	147
   248  0091                     _SSPCON2	set	145
   249  048C                     _ACKEN	set	1164
   250  048D                     _ACKDT	set	1165
   251  048B                     _RCEN	set	1163
   252  048A                     _PEN	set	1162
   253  0488                     _SEN	set	1160
   254  043C                     _TRISC4	set	1084
   255  043B                     _TRISC3	set	1083
   256                           
   257                           ; #config settings
   258  0000                     
   259                           	psect	cinit
   260  07E2                     start_initialization:	
   261  07E2                     __initialization:	
   262                           
   263                           ; Initialize objects allocated to BANK0
   264  07E2  1383               	bcf	3,7	;select IRP bank0
   265  07E3  3042               	movlw	low (__pdataBANK0+34)
   266  07E4  00FD               	movwf	btemp+-1
   267  07E5  3002               	movlw	high __pidataBANK0
   268  07E6  00FE               	movwf	btemp
   269  07E7  30BC               	movlw	low __pidataBANK0
   270  07E8  00FF               	movwf	btemp+1
   271  07E9  3020               	movlw	low __pdataBANK0
   272  07EA  0084               	movwf	4
   273  07EB  120A  118A  22AD  120A  118A  	fcall	init_ram0
   274                           
   275                           ; Clear objects allocated to BANK0
   276  07F0  01D9               	clrf	__pbssBANK0& (0+127)
   277  07F1  01DA               	clrf	(__pbssBANK0+1)& (0+127)
   278  07F2  01DB               	clrf	(__pbssBANK0+2)& (0+127)
   279  07F3  01DC               	clrf	(__pbssBANK0+3)& (0+127)
   280  07F4  01DD               	clrf	(__pbssBANK0+4)& (0+127)
   281  07F5  01DE               	clrf	(__pbssBANK0+5)& (0+127)
   282  07F6  01DF               	clrf	(__pbssBANK0+6)& (0+127)
   283  07F7  01E0               	clrf	(__pbssBANK0+7)& (0+127)
   284  07F8  01E1               	clrf	(__pbssBANK0+8)& (0+127)
   285  07F9  01E2               	clrf	(__pbssBANK0+9)& (0+127)
   286  07FA  01E3               	clrf	(__pbssBANK0+10)& (0+127)
   287  07FB  01E4               	clrf	(__pbssBANK0+11)& (0+127)
   288  07FC                     end_of_initialization:	
   289                           ;End of C runtime variable initialization code
   290                           
   291  07FC                     __end_of__initialization:	
   292  07FC  0183               	clrf	3
   293  07FD  120A  118A  2DFA   	ljmp	_main	;jump to C main() function
   294                           
   295                           	psect	bssBANK0
   296  0059                     __pbssBANK0:	
   297  0059                     _h2:	
   298  0059                     	ds	2
   299  005B                     _h1:	
   300  005B                     	ds	2
   301  005D                     _m2:	
   302  005D                     	ds	2
   303  005F                     _m1:	
   304  005F                     	ds	2
   305  0061                     _s2:	
   306  0061                     	ds	2
   307  0063                     _s1:	
   308  0063                     	ds	2
   309                           
   310                           	psect	dataBANK0
   311  0020                     __pdataBANK0:	
   312  0020                     _seg:	
   313  0020                     	ds	20
   314  0034                     _dly:	
   315  0034                     	ds	2
   316  0036                     _year:	
   317  0036                     	ds	2
   318  0038                     _month:	
   319  0038                     	ds	2
   320  003A                     _date:	
   321  003A                     	ds	2
   322  003C                     _hour:	
   323  003C                     	ds	2
   324  003E                     _min:	
   325  003E                     	ds	2
   326  0040                     _sec:	
   327  0040                     	ds	2
   328                           
   329                           	psect	inittext
   330  02A9                     init_fetch0:	
   331                           ;	Called with low address in FSR and high address in W
   332                           
   333  02A9  087E               	movf	btemp,w
   334  02AA  008A               	movwf	10
   335  02AB  087F               	movf	btemp+1,w
   336  02AC  0082               	movwf	2
   337  02AD                     init_ram0:	
   338                           ;Called with:
   339                           ;	high address of idata address in btemp 
   340                           ;	low address of idata address in btemp+1 
   341                           ;	low address of data in FSR
   342                           ;	high address + 1 of data in btemp-1
   343                           
   344  02AD  120A  118A  22A9  120A  118A  	fcall	init_fetch0
   345  02B2  0080               	movwf	0
   346  02B3  0A84               	incf	4,f
   347  02B4  0804               	movf	4,w
   348  02B5  067D               	xorwf	btemp+-1,w
   349  02B6  1903               	btfsc	3,2
   350  02B7  3400               	retlw	0
   351  02B8  0AFF               	incf	btemp+1,f
   352  02B9  1903               	btfsc	3,2
   353  02BA  0AFE               	incf	btemp,f
   354  02BB  2AAD               	goto	init_ram0
   355                           
   356                           	psect	cstackCOMMON
   357  0070                     __pcstackCOMMON:	
   358  0070                     ?_I2C_Hold:	
   359  0070                     ??_I2C_Hold:	
   360                           ; 1 bytes @ 0x0
   361                           
   362  0070                     ?_I2C_Begin:	
   363                           ; 1 bytes @ 0x0
   364                           
   365  0070                     ??_I2C_Begin:	
   366                           ; 1 bytes @ 0x0
   367                           
   368  0070                     ?_I2C_End:	
   369                           ; 1 bytes @ 0x0
   370                           
   371  0070                     ??_I2C_End:	
   372                           ; 1 bytes @ 0x0
   373                           
   374  0070                     ?_I2C_Write:	
   375                           ; 1 bytes @ 0x0
   376                           
   377  0070                     ?_Update_Current_Date_Time:	
   378                           ; 1 bytes @ 0x0
   379                           
   380  0070                     ?_I2C_Read:	
   381                           ; 1 bytes @ 0x0
   382                           
   383  0070                     ?_main:	
   384                           ; 2 bytes @ 0x0
   385                           
   386  0070                     ?___wmul:	
   387                           ; 2 bytes @ 0x0
   388                           
   389  0070                     ?___awdiv:	
   390                           ; 2 bytes @ 0x0
   391                           
   392  0070                     ?___awmod:	
   393                           ; 2 bytes @ 0x0
   394                           
   395  0070                     ?___lmul:	
   396                           ; 2 bytes @ 0x0
   397                           
   398  0070                     I2C_Write@data:	
   399                           ; 4 bytes @ 0x0
   400                           
   401  0070                     I2C_Read@ack:	
   402                           ; 2 bytes @ 0x0
   403                           
   404  0070                     ___wmul@multiplier:	
   405                           ; 2 bytes @ 0x0
   406                           
   407  0070                     ___awdiv@divisor:	
   408                           ; 2 bytes @ 0x0
   409                           
   410  0070                     ___awmod@divisor:	
   411                           ; 2 bytes @ 0x0
   412                           
   413  0070                     ___lmul@multiplier:	
   414                           ; 2 bytes @ 0x0
   415                           
   416                           
   417                           ; 4 bytes @ 0x0
   418  0070                     	ds	2
   419  0072                     ??_I2C_Write:	
   420  0072                     ??_I2C_Read:	
   421                           ; 1 bytes @ 0x2
   422                           
   423  0072                     ___wmul@multiplicand:	
   424                           ; 1 bytes @ 0x2
   425                           
   426  0072                     ___awdiv@dividend:	
   427                           ; 2 bytes @ 0x2
   428                           
   429  0072                     ___awmod@dividend:	
   430                           ; 2 bytes @ 0x2
   431                           
   432                           
   433                           ; 2 bytes @ 0x2
   434  0072                     	ds	2
   435  0074                     ??___wmul:	
   436  0074                     ??___awdiv:	
   437                           ; 1 bytes @ 0x4
   438                           
   439  0074                     ??___awmod:	
   440                           ; 1 bytes @ 0x4
   441                           
   442  0074                     I2C_Read@incoming:	
   443                           ; 1 bytes @ 0x4
   444                           
   445  0074                     ___wmul@product:	
   446                           ; 2 bytes @ 0x4
   447                           
   448  0074                     ___lmul@multiplicand:	
   449                           ; 2 bytes @ 0x4
   450                           
   451                           
   452                           ; 4 bytes @ 0x4
   453  0074                     	ds	1
   454  0075                     ___awdiv@counter:	
   455  0075                     ___awmod@counter:	
   456                           ; 1 bytes @ 0x5
   457                           
   458                           
   459                           ; 1 bytes @ 0x5
   460  0075                     	ds	1
   461  0076                     ?_BCD_2_DEC:	
   462  0076                     ___awdiv@sign:	
   463                           ; 2 bytes @ 0x6
   464                           
   465  0076                     ___awmod@sign:	
   466                           ; 1 bytes @ 0x6
   467                           
   468  0076                     BCD_2_DEC@to_convert:	
   469                           ; 1 bytes @ 0x6
   470                           
   471                           
   472                           ; 2 bytes @ 0x6
   473  0076                     	ds	1
   474  0077                     ___awdiv@quotient:	
   475                           
   476                           ; 2 bytes @ 0x7
   477  0077                     	ds	1
   478  0078                     ??_BCD_2_DEC:	
   479  0078                     ??___lmul:	
   480                           ; 1 bytes @ 0x8
   481                           
   482                           
   483                           ; 1 bytes @ 0x8
   484  0078                     	ds	1
   485  0079                     ___lmul@product:	
   486                           
   487                           ; 4 bytes @ 0x9
   488  0079                     	ds	1
   489  007A                     ??_Update_Current_Date_Time:	
   490                           
   491                           ; 1 bytes @ 0xA
   492  007A                     	ds	3
   493  007D                     ??___lldiv:	
   494                           
   495                           ; 1 bytes @ 0xD
   496  007D                     	ds	1
   497                           
   498                           	psect	cstackBANK0
   499  0042                     __pcstackBANK0:	
   500  0042                     ?___lldiv:	
   501  0042                     ___lldiv@divisor:	
   502                           ; 4 bytes @ 0x0
   503                           
   504                           
   505                           ; 4 bytes @ 0x0
   506  0042                     	ds	4
   507  0046                     ___lldiv@dividend:	
   508                           
   509                           ; 4 bytes @ 0x4
   510  0046                     	ds	4
   511  004A                     ___lldiv@quotient:	
   512                           
   513                           ; 4 bytes @ 0x8
   514  004A                     	ds	4
   515  004E                     ___lldiv@counter:	
   516                           
   517                           ; 1 bytes @ 0xC
   518  004E                     	ds	1
   519  004F                     ?_I2C_Initialize:	
   520  004F                     I2C_Initialize@feq_K:	
   521                           ; 1 bytes @ 0xD
   522                           
   523                           
   524                           ; 4 bytes @ 0xD
   525  004F                     	ds	4
   526  0053                     ??_I2C_Initialize:	
   527                           
   528                           ; 1 bytes @ 0x11
   529  0053                     	ds	4
   530  0057                     ??_main:	
   531                           
   532                           ; 1 bytes @ 0x15
   533  0057                     	ds	2
   534                           
   535                           	psect	maintext
   536  05FA                     __pmaintext:	
   537 ;;
   538 ;;Main: autosize = 0, tempsize = 2, incstack = 0, save=0
   539 ;;
   540 ;; *************** function _main *****************
   541 ;; Defined at:
   542 ;;		line 48 in file "Clock.c"
   543 ;; Parameters:    Size  Location     Type
   544 ;;		None
   545 ;; Auto vars:     Size  Location     Type
   546 ;;		None
   547 ;; Return value:  Size  Location     Type
   548 ;;                  2  111[None  ] int 
   549 ;; Registers used:
   550 ;;		wreg, fsr0l, fsr0h, status,2, status,0, pclath, cstack
   551 ;; Tracked objects:
   552 ;;		On entry : B00/0
   553 ;;		On exit  : 0/0
   554 ;;		Unchanged: 0/0
   555 ;; Data sizes:     COMMON   BANK0   BANK1   BANK3   BANK2
   556 ;;      Params:         0       0       0       0       0
   557 ;;      Locals:         0       0       0       0       0
   558 ;;      Temps:          0       2       0       0       0
   559 ;;      Totals:         0       2       0       0       0
   560 ;;Total ram usage:        2 bytes
   561 ;; Hardware stack levels required when called:    3
   562 ;; This function calls:
   563 ;;		_I2C_Initialize
   564 ;;		_Update_Current_Date_Time
   565 ;;		___awdiv
   566 ;;		___awmod
   567 ;; This function is called by:
   568 ;;		Startup code after reset
   569 ;; This function uses a non-reentrant model
   570 ;;
   571                           
   572                           
   573                           ;psect for function _main
   574  05FA                     _main:	
   575  05FA                     l1524:	
   576                           ;incstack = 0
   577                           ; Regs used in _main: [wreg-fsr0h+status,2+status,0+pclath+cstack]
   578                           
   579                           
   580                           ;Clock.c: 51:     TRISB=0x00;
   581  05FA  1683               	bsf	3,5	;RP0=1, select bank1
   582  05FB  1303               	bcf	3,6	;RP1=0, select bank1
   583  05FC  0186               	clrf	6	;volatile
   584                           
   585                           ;Clock.c: 52:     PORTB=0x00;
   586  05FD  1283               	bcf	3,5	;RP0=0, select bank0
   587  05FE  1303               	bcf	3,6	;RP1=0, select bank0
   588  05FF  0186               	clrf	6	;volatile
   589                           
   590                           ;Clock.c: 53:     TRISD=0x00;
   591  0600  1683               	bsf	3,5	;RP0=1, select bank1
   592  0601  1303               	bcf	3,6	;RP1=0, select bank1
   593  0602  0188               	clrf	8	;volatile
   594                           
   595                           ;Clock.c: 54:     PORTD=0x00;
   596  0603  1283               	bcf	3,5	;RP0=0, select bank0
   597  0604  1303               	bcf	3,6	;RP1=0, select bank0
   598  0605  0188               	clrf	8	;volatile
   599  0606                     l1526:	
   600                           
   601                           ;Clock.c: 55:     I2C_Initialize(100);
   602  0606  3000               	movlw	0
   603  0607  00D2               	movwf	I2C_Initialize@feq_K+3
   604  0608  3000               	movlw	0
   605  0609  00D1               	movwf	I2C_Initialize@feq_K+2
   606  060A  3000               	movlw	0
   607  060B  00D0               	movwf	I2C_Initialize@feq_K+1
   608  060C  3064               	movlw	100
   609  060D  00CF               	movwf	I2C_Initialize@feq_K
   610  060E  120A  118A  239B  120A  118A  	fcall	_I2C_Initialize
   611  0613                     l1528:	
   612                           
   613                           ;Clock.c: 57:     {;Clock.c: 58:         Update_Current_Date_Time();
   614  0613  120A  118A  2516  120A  118A  	fcall	_Update_Current_Date_Time
   615  0618                     l1530:	
   616                           
   617                           ;Clock.c: 59:         s1=sec%10;
   618  0618  300A               	movlw	10
   619  0619  00F0               	movwf	___awmod@divisor
   620  061A  3000               	movlw	0
   621  061B  00F1               	movwf	___awmod@divisor+1
   622  061C  1283               	bcf	3,5	;RP0=0, select bank0
   623  061D  1303               	bcf	3,6	;RP1=0, select bank0
   624  061E  0841               	movf	_sec+1,w
   625  061F  00F3               	movwf	___awmod@dividend+1
   626  0620  0840               	movf	_sec,w
   627  0621  00F2               	movwf	___awmod@dividend
   628  0622  120A  118A  23EE  120A  118A  	fcall	___awmod
   629  0627  0871               	movf	?___awmod+1,w
   630  0628  1283               	bcf	3,5	;RP0=0, select bank0
   631  0629  1303               	bcf	3,6	;RP1=0, select bank0
   632  062A  00E4               	movwf	_s1+1
   633  062B  0870               	movf	?___awmod,w
   634  062C  00E3               	movwf	_s1
   635  062D                     l1532:	
   636                           
   637                           ;Clock.c: 60:         s2=sec/10;
   638  062D  300A               	movlw	10
   639  062E  00F0               	movwf	___awdiv@divisor
   640  062F  3000               	movlw	0
   641  0630  00F1               	movwf	___awdiv@divisor+1
   642  0631  0841               	movf	_sec+1,w
   643  0632  00F3               	movwf	___awdiv@dividend+1
   644  0633  0840               	movf	_sec,w
   645  0634  00F2               	movwf	___awdiv@dividend
   646  0635  120A  118A  2447  120A  118A  	fcall	___awdiv
   647  063A  0871               	movf	?___awdiv+1,w
   648  063B  1283               	bcf	3,5	;RP0=0, select bank0
   649  063C  1303               	bcf	3,6	;RP1=0, select bank0
   650  063D  00E2               	movwf	_s2+1
   651  063E  0870               	movf	?___awdiv,w
   652  063F  00E1               	movwf	_s2
   653  0640                     l1534:	
   654                           
   655                           ;Clock.c: 61:         m1=min%10;
   656  0640  300A               	movlw	10
   657  0641  00F0               	movwf	___awmod@divisor
   658  0642  3000               	movlw	0
   659  0643  00F1               	movwf	___awmod@divisor+1
   660  0644  083F               	movf	_min+1,w
   661  0645  00F3               	movwf	___awmod@dividend+1
   662  0646  083E               	movf	_min,w
   663  0647  00F2               	movwf	___awmod@dividend
   664  0648  120A  118A  23EE  120A  118A  	fcall	___awmod
   665  064D  0871               	movf	?___awmod+1,w
   666  064E  1283               	bcf	3,5	;RP0=0, select bank0
   667  064F  1303               	bcf	3,6	;RP1=0, select bank0
   668  0650  00E0               	movwf	_m1+1
   669  0651  0870               	movf	?___awmod,w
   670  0652  00DF               	movwf	_m1
   671  0653                     l1536:	
   672                           
   673                           ;Clock.c: 62:         m2=min/10;
   674  0653  300A               	movlw	10
   675  0654  00F0               	movwf	___awdiv@divisor
   676  0655  3000               	movlw	0
   677  0656  00F1               	movwf	___awdiv@divisor+1
   678  0657  083F               	movf	_min+1,w
   679  0658  00F3               	movwf	___awdiv@dividend+1
   680  0659  083E               	movf	_min,w
   681  065A  00F2               	movwf	___awdiv@dividend
   682  065B  120A  118A  2447  120A  118A  	fcall	___awdiv
   683  0660  0871               	movf	?___awdiv+1,w
   684  0661  1283               	bcf	3,5	;RP0=0, select bank0
   685  0662  1303               	bcf	3,6	;RP1=0, select bank0
   686  0663  00DE               	movwf	_m2+1
   687  0664  0870               	movf	?___awdiv,w
   688  0665  00DD               	movwf	_m2
   689  0666                     l1538:	
   690                           
   691                           ;Clock.c: 63:         if(hour==1 || hour==13)
   692  0666  033C               	decf	_hour,w
   693  0667  043D               	iorwf	_hour+1,w
   694  0668  1903               	btfsc	3,2
   695  0669  2E6B               	goto	u1691
   696  066A  2E6C               	goto	u1690
   697  066B                     u1691:	
   698  066B  2E73               	goto	l1542
   699  066C                     u1690:	
   700  066C                     l1540:	
   701  066C  300D               	movlw	13
   702  066D  063C               	xorwf	_hour,w
   703  066E  043D               	iorwf	_hour+1,w
   704  066F  1D03               	btfss	3,2
   705  0670  2E72               	goto	u1701
   706  0671  2E73               	goto	u1700
   707  0672                     u1701:	
   708  0672  2E7A               	goto	l1546
   709  0673                     u1700:	
   710  0673                     l1542:	
   711                           
   712                           ;Clock.c: 64:         {;Clock.c: 65:             h1=1;
   713  0673  3001               	movlw	1
   714  0674  00DB               	movwf	_h1
   715  0675  3000               	movlw	0
   716  0676  00DC               	movwf	_h1+1
   717  0677                     l1544:	
   718                           
   719                           ;Clock.c: 66:             h2=0;
   720  0677  01D9               	clrf	_h2
   721  0678  01DA               	clrf	_h2+1
   722                           
   723                           ;Clock.c: 67:         }
   724  0679  2F54               	goto	l1630
   725  067A                     l1546:	
   726  067A  3002               	movlw	2
   727  067B  063C               	xorwf	_hour,w
   728  067C  043D               	iorwf	_hour+1,w
   729  067D  1903               	btfsc	3,2
   730  067E  2E80               	goto	u1711
   731  067F  2E81               	goto	u1710
   732  0680                     u1711:	
   733  0680  2E88               	goto	l1550
   734  0681                     u1710:	
   735  0681                     l1548:	
   736  0681  300E               	movlw	14
   737  0682  063C               	xorwf	_hour,w
   738  0683  043D               	iorwf	_hour+1,w
   739  0684  1D03               	btfss	3,2
   740  0685  2E87               	goto	u1721
   741  0686  2E88               	goto	u1720
   742  0687                     u1721:	
   743  0687  2E8D               	goto	l1554
   744  0688                     u1720:	
   745  0688                     l1550:	
   746                           
   747                           ;Clock.c: 69:         {;Clock.c: 70:             h1=2;
   748  0688  3002               	movlw	2
   749  0689  00DB               	movwf	_h1
   750  068A  3000               	movlw	0
   751  068B  00DC               	movwf	_h1+1
   752  068C  2E77               	goto	l1544
   753  068D                     l1554:	
   754  068D  3003               	movlw	3
   755  068E  063C               	xorwf	_hour,w
   756  068F  043D               	iorwf	_hour+1,w
   757  0690  1903               	btfsc	3,2
   758  0691  2E93               	goto	u1731
   759  0692  2E94               	goto	u1730
   760  0693                     u1731:	
   761  0693  2E9B               	goto	l1558
   762  0694                     u1730:	
   763  0694                     l1556:	
   764  0694  300F               	movlw	15
   765  0695  063C               	xorwf	_hour,w
   766  0696  043D               	iorwf	_hour+1,w
   767  0697  1D03               	btfss	3,2
   768  0698  2E9A               	goto	u1741
   769  0699  2E9B               	goto	u1740
   770  069A                     u1741:	
   771  069A  2EA0               	goto	l1562
   772  069B                     u1740:	
   773  069B                     l1558:	
   774                           
   775                           ;Clock.c: 74:         {;Clock.c: 75:             h1=3;
   776  069B  3003               	movlw	3
   777  069C  00DB               	movwf	_h1
   778  069D  3000               	movlw	0
   779  069E  00DC               	movwf	_h1+1
   780  069F  2E77               	goto	l1544
   781  06A0                     l1562:	
   782  06A0  3004               	movlw	4
   783  06A1  063C               	xorwf	_hour,w
   784  06A2  043D               	iorwf	_hour+1,w
   785  06A3  1903               	btfsc	3,2
   786  06A4  2EA6               	goto	u1751
   787  06A5  2EA7               	goto	u1750
   788  06A6                     u1751:	
   789  06A6  2EAE               	goto	l1566
   790  06A7                     u1750:	
   791  06A7                     l1564:	
   792  06A7  3010               	movlw	16
   793  06A8  063C               	xorwf	_hour,w
   794  06A9  043D               	iorwf	_hour+1,w
   795  06AA  1D03               	btfss	3,2
   796  06AB  2EAD               	goto	u1761
   797  06AC  2EAE               	goto	u1760
   798  06AD                     u1761:	
   799  06AD  2EB3               	goto	l1570
   800  06AE                     u1760:	
   801  06AE                     l1566:	
   802                           
   803                           ;Clock.c: 79:         {;Clock.c: 80:             h1=4;
   804  06AE  3004               	movlw	4
   805  06AF  00DB               	movwf	_h1
   806  06B0  3000               	movlw	0
   807  06B1  00DC               	movwf	_h1+1
   808  06B2  2E77               	goto	l1544
   809  06B3                     l1570:	
   810  06B3  3005               	movlw	5
   811  06B4  063C               	xorwf	_hour,w
   812  06B5  043D               	iorwf	_hour+1,w
   813  06B6  1903               	btfsc	3,2
   814  06B7  2EB9               	goto	u1771
   815  06B8  2EBA               	goto	u1770
   816  06B9                     u1771:	
   817  06B9  2EC1               	goto	l1574
   818  06BA                     u1770:	
   819  06BA                     l1572:	
   820  06BA  3011               	movlw	17
   821  06BB  063C               	xorwf	_hour,w
   822  06BC  043D               	iorwf	_hour+1,w
   823  06BD  1D03               	btfss	3,2
   824  06BE  2EC0               	goto	u1781
   825  06BF  2EC1               	goto	u1780
   826  06C0                     u1781:	
   827  06C0  2EC6               	goto	l1578
   828  06C1                     u1780:	
   829  06C1                     l1574:	
   830                           
   831                           ;Clock.c: 84:         {;Clock.c: 85:             h1=5;
   832  06C1  3005               	movlw	5
   833  06C2  00DB               	movwf	_h1
   834  06C3  3000               	movlw	0
   835  06C4  00DC               	movwf	_h1+1
   836  06C5  2E77               	goto	l1544
   837  06C6                     l1578:	
   838  06C6  3006               	movlw	6
   839  06C7  063C               	xorwf	_hour,w
   840  06C8  043D               	iorwf	_hour+1,w
   841  06C9  1903               	btfsc	3,2
   842  06CA  2ECC               	goto	u1791
   843  06CB  2ECD               	goto	u1790
   844  06CC                     u1791:	
   845  06CC  2ED4               	goto	l1582
   846  06CD                     u1790:	
   847  06CD                     l1580:	
   848  06CD  3012               	movlw	18
   849  06CE  063C               	xorwf	_hour,w
   850  06CF  043D               	iorwf	_hour+1,w
   851  06D0  1D03               	btfss	3,2
   852  06D1  2ED3               	goto	u1801
   853  06D2  2ED4               	goto	u1800
   854  06D3                     u1801:	
   855  06D3  2ED9               	goto	l1586
   856  06D4                     u1800:	
   857  06D4                     l1582:	
   858                           
   859                           ;Clock.c: 89:         {;Clock.c: 90:            h1=6;
   860  06D4  3006               	movlw	6
   861  06D5  00DB               	movwf	_h1
   862  06D6  3000               	movlw	0
   863  06D7  00DC               	movwf	_h1+1
   864  06D8  2E77               	goto	l1544
   865  06D9                     l1586:	
   866  06D9  3007               	movlw	7
   867  06DA  063C               	xorwf	_hour,w
   868  06DB  043D               	iorwf	_hour+1,w
   869  06DC  1903               	btfsc	3,2
   870  06DD  2EDF               	goto	u1811
   871  06DE  2EE0               	goto	u1810
   872  06DF                     u1811:	
   873  06DF  2EE7               	goto	l1590
   874  06E0                     u1810:	
   875  06E0                     l1588:	
   876  06E0  3013               	movlw	19
   877  06E1  063C               	xorwf	_hour,w
   878  06E2  043D               	iorwf	_hour+1,w
   879  06E3  1D03               	btfss	3,2
   880  06E4  2EE6               	goto	u1821
   881  06E5  2EE7               	goto	u1820
   882  06E6                     u1821:	
   883  06E6  2EEC               	goto	l1594
   884  06E7                     u1820:	
   885  06E7                     l1590:	
   886                           
   887                           ;Clock.c: 94:         {;Clock.c: 95:             h1=7;
   888  06E7  3007               	movlw	7
   889  06E8  00DB               	movwf	_h1
   890  06E9  3000               	movlw	0
   891  06EA  00DC               	movwf	_h1+1
   892  06EB  2E77               	goto	l1544
   893  06EC                     l1594:	
   894  06EC  3008               	movlw	8
   895  06ED  063C               	xorwf	_hour,w
   896  06EE  043D               	iorwf	_hour+1,w
   897  06EF  1903               	btfsc	3,2
   898  06F0  2EF2               	goto	u1831
   899  06F1  2EF3               	goto	u1830
   900  06F2                     u1831:	
   901  06F2  2EFA               	goto	l1598
   902  06F3                     u1830:	
   903  06F3                     l1596:	
   904  06F3  3014               	movlw	20
   905  06F4  063C               	xorwf	_hour,w
   906  06F5  043D               	iorwf	_hour+1,w
   907  06F6  1D03               	btfss	3,2
   908  06F7  2EF9               	goto	u1841
   909  06F8  2EFA               	goto	u1840
   910  06F9                     u1841:	
   911  06F9  2EFF               	goto	l1602
   912  06FA                     u1840:	
   913  06FA                     l1598:	
   914                           
   915                           ;Clock.c: 99:         {;Clock.c: 100:             h1=8;
   916  06FA  3008               	movlw	8
   917  06FB  00DB               	movwf	_h1
   918  06FC  3000               	movlw	0
   919  06FD  00DC               	movwf	_h1+1
   920  06FE  2E77               	goto	l1544
   921  06FF                     l1602:	
   922  06FF  3009               	movlw	9
   923  0700  063C               	xorwf	_hour,w
   924  0701  043D               	iorwf	_hour+1,w
   925  0702  1903               	btfsc	3,2
   926  0703  2F05               	goto	u1851
   927  0704  2F06               	goto	u1850
   928  0705                     u1851:	
   929  0705  2F0D               	goto	l1606
   930  0706                     u1850:	
   931  0706                     l1604:	
   932  0706  3015               	movlw	21
   933  0707  063C               	xorwf	_hour,w
   934  0708  043D               	iorwf	_hour+1,w
   935  0709  1D03               	btfss	3,2
   936  070A  2F0C               	goto	u1861
   937  070B  2F0D               	goto	u1860
   938  070C                     u1861:	
   939  070C  2F12               	goto	l1610
   940  070D                     u1860:	
   941  070D                     l1606:	
   942                           
   943                           ;Clock.c: 104:         {;Clock.c: 105:             h1=9;
   944  070D  3009               	movlw	9
   945  070E  00DB               	movwf	_h1
   946  070F  3000               	movlw	0
   947  0710  00DC               	movwf	_h1+1
   948  0711  2E77               	goto	l1544
   949  0712                     l1610:	
   950  0712  300A               	movlw	10
   951  0713  063C               	xorwf	_hour,w
   952  0714  043D               	iorwf	_hour+1,w
   953  0715  1903               	btfsc	3,2
   954  0716  2F18               	goto	u1871
   955  0717  2F19               	goto	u1870
   956  0718                     u1871:	
   957  0718  2F20               	goto	l1614
   958  0719                     u1870:	
   959  0719                     l1612:	
   960  0719  3016               	movlw	22
   961  071A  063C               	xorwf	_hour,w
   962  071B  043D               	iorwf	_hour+1,w
   963  071C  1D03               	btfss	3,2
   964  071D  2F1F               	goto	u1881
   965  071E  2F20               	goto	u1880
   966  071F                     u1881:	
   967  071F  2F27               	goto	l1618
   968  0720                     u1880:	
   969  0720                     l1614:	
   970                           
   971                           ;Clock.c: 109:         {;Clock.c: 110:             h1=0;
   972  0720  01DB               	clrf	_h1
   973  0721  01DC               	clrf	_h1+1
   974  0722                     l1616:	
   975                           
   976                           ;Clock.c: 111:             h2=1;
   977  0722  3001               	movlw	1
   978  0723  00D9               	movwf	_h2
   979  0724  3000               	movlw	0
   980  0725  00DA               	movwf	_h2+1
   981                           
   982                           ;Clock.c: 112:         }
   983  0726  2F54               	goto	l1630
   984  0727                     l1618:	
   985  0727  300B               	movlw	11
   986  0728  063C               	xorwf	_hour,w
   987  0729  043D               	iorwf	_hour+1,w
   988  072A  1903               	btfsc	3,2
   989  072B  2F2D               	goto	u1891
   990  072C  2F2E               	goto	u1890
   991  072D                     u1891:	
   992  072D  2F35               	goto	l1622
   993  072E                     u1890:	
   994  072E                     l1620:	
   995  072E  3017               	movlw	23
   996  072F  063C               	xorwf	_hour,w
   997  0730  043D               	iorwf	_hour+1,w
   998  0731  1D03               	btfss	3,2
   999  0732  2F34               	goto	u1901
  1000  0733  2F35               	goto	u1900
  1001  0734                     u1901:	
  1002  0734  2F3E               	goto	l1624
  1003  0735                     u1900:	
  1004  0735                     l1622:	
  1005                           
  1006                           ;Clock.c: 114:         {;Clock.c: 115:             h1=1;
  1007  0735  3001               	movlw	1
  1008  0736  00DB               	movwf	_h1
  1009  0737  3000               	movlw	0
  1010  0738  00DC               	movwf	_h1+1
  1011                           
  1012                           ;Clock.c: 116:             h2=1;
  1013  0739  3001               	movlw	1
  1014  073A  00D9               	movwf	_h2
  1015  073B  3000               	movlw	0
  1016  073C  00DA               	movwf	_h2+1
  1017                           
  1018                           ;Clock.c: 117:         }
  1019  073D  2F54               	goto	l1630
  1020  073E                     l1624:	
  1021  073E  300C               	movlw	12
  1022  073F  063C               	xorwf	_hour,w
  1023  0740  043D               	iorwf	_hour+1,w
  1024  0741  1903               	btfsc	3,2
  1025  0742  2F44               	goto	u1911
  1026  0743  2F45               	goto	u1910
  1027  0744                     u1911:	
  1028  0744  2F4B               	goto	l1628
  1029  0745                     u1910:	
  1030  0745                     l1626:	
  1031  0745  083C               	movf	_hour,w
  1032  0746  043D               	iorwf	_hour+1,w
  1033  0747  1D03               	btfss	3,2
  1034  0748  2F4A               	goto	u1921
  1035  0749  2F4B               	goto	u1920
  1036  074A                     u1921:	
  1037  074A  2F54               	goto	l148
  1038  074B                     u1920:	
  1039  074B                     l1628:	
  1040                           
  1041                           ;Clock.c: 119:         {;Clock.c: 120:             h1=2;
  1042  074B  3002               	movlw	2
  1043  074C  00DB               	movwf	_h1
  1044  074D  3000               	movlw	0
  1045  074E  00DC               	movwf	_h1+1
  1046                           
  1047                           ;Clock.c: 121:             h2=1;
  1048  074F  3001               	movlw	1
  1049  0750  00D9               	movwf	_h2
  1050  0751  3000               	movlw	0
  1051  0752  00DA               	movwf	_h2+1
  1052  0753  2F54               	goto	l1630
  1053  0754                     l148:	
  1054  0754                     l1630:	
  1055                           
  1056                           ;Clock.c: 123:         PORTD=seg[h2];
  1057  0754  0859               	movf	_h2,w
  1058  0755  00D7               	movwf	??_main
  1059  0756  0757               	addwf	??_main,w
  1060  0757  3E20               	addlw	(low (_seg| 0))& (0+255)
  1061  0758  0084               	movwf	4
  1062  0759  1383               	bcf	3,7	;select IRP bank0
  1063  075A  0800               	movf	0,w
  1064  075B  0088               	movwf	8	;volatile
  1065  075C                     l1632:	
  1066                           
  1067                           ;Clock.c: 124:         RB5=1;
  1068  075C  1686               	bsf	6,5	;volatile
  1069  075D                     l1634:	
  1070                           
  1071                           ;Clock.c: 125:         _delay((unsigned long)((dly)*(16000000/4000.0)));
  1072  075D  300B               	movlw	11
  1073  075E  1283               	bcf	3,5	;RP0=0, select bank0
  1074  075F  1303               	bcf	3,6	;RP1=0, select bank0
  1075  0760  00D8               	movwf	??_main+1
  1076  0761  3061               	movlw	97
  1077  0762  00D7               	movwf	??_main
  1078  0763                     u2577:	
  1079  0763  0BD7               	decfsz	??_main,f
  1080  0764  2F63               	goto	u2577
  1081  0765  0BD8               	decfsz	??_main+1,f
  1082  0766  2F63               	goto	u2577
  1083  0767  2F68               	nop2
  1084  0768                     l1636:	
  1085                           
  1086                           ;Clock.c: 126:         RB5=0;
  1087  0768  1283               	bcf	3,5	;RP0=0, select bank0
  1088  0769  1303               	bcf	3,6	;RP1=0, select bank0
  1089  076A  1286               	bcf	6,5	;volatile
  1090                           
  1091                           ;Clock.c: 127:         PORTD=seg[h1];
  1092  076B  085B               	movf	_h1,w
  1093  076C  00D7               	movwf	??_main
  1094  076D  0757               	addwf	??_main,w
  1095  076E  3E20               	addlw	(low (_seg| 0))& (0+255)
  1096  076F  0084               	movwf	4
  1097  0770  1383               	bcf	3,7	;select IRP bank0
  1098  0771  0800               	movf	0,w
  1099  0772  0088               	movwf	8	;volatile
  1100  0773                     l1638:	
  1101                           
  1102                           ;Clock.c: 128:         RB4=1;
  1103  0773  1606               	bsf	6,4	;volatile
  1104  0774                     l1640:	
  1105                           
  1106                           ;Clock.c: 129:         _delay((unsigned long)((dly)*(16000000/4000.0)));
  1107  0774  300B               	movlw	11
  1108  0775  1283               	bcf	3,5	;RP0=0, select bank0
  1109  0776  1303               	bcf	3,6	;RP1=0, select bank0
  1110  0777  00D8               	movwf	??_main+1
  1111  0778  3061               	movlw	97
  1112  0779  00D7               	movwf	??_main
  1113  077A                     u2587:	
  1114  077A  0BD7               	decfsz	??_main,f
  1115  077B  2F7A               	goto	u2587
  1116  077C  0BD8               	decfsz	??_main+1,f
  1117  077D  2F7A               	goto	u2587
  1118  077E  2F7F               	nop2
  1119  077F                     l1642:	
  1120                           
  1121                           ;Clock.c: 130:         RB4=0;
  1122  077F  1283               	bcf	3,5	;RP0=0, select bank0
  1123  0780  1303               	bcf	3,6	;RP1=0, select bank0
  1124  0781  1206               	bcf	6,4	;volatile
  1125  0782                     l1644:	
  1126                           
  1127                           ;Clock.c: 131:         PORTD=seg[m2];
  1128  0782  085D               	movf	_m2,w
  1129  0783  00D7               	movwf	??_main
  1130  0784  0757               	addwf	??_main,w
  1131  0785  3E20               	addlw	(low (_seg| 0))& (0+255)
  1132  0786  0084               	movwf	4
  1133  0787  1383               	bcf	3,7	;select IRP bank0
  1134  0788  0800               	movf	0,w
  1135  0789  0088               	movwf	8	;volatile
  1136  078A                     l1646:	
  1137                           
  1138                           ;Clock.c: 132:         RB3=1;
  1139  078A  1586               	bsf	6,3	;volatile
  1140                           
  1141                           ;Clock.c: 133:         _delay((unsigned long)((dly)*(16000000/4000.0)));
  1142  078B  300B               	movlw	11
  1143  078C  1283               	bcf	3,5	;RP0=0, select bank0
  1144  078D  1303               	bcf	3,6	;RP1=0, select bank0
  1145  078E  00D8               	movwf	??_main+1
  1146  078F  3061               	movlw	97
  1147  0790  00D7               	movwf	??_main
  1148  0791                     u2597:	
  1149  0791  0BD7               	decfsz	??_main,f
  1150  0792  2F91               	goto	u2597
  1151  0793  0BD8               	decfsz	??_main+1,f
  1152  0794  2F91               	goto	u2597
  1153  0795  2F96               	nop2
  1154  0796                     l1648:	
  1155                           
  1156                           ;Clock.c: 134:         RB3=0;
  1157  0796  1283               	bcf	3,5	;RP0=0, select bank0
  1158  0797  1303               	bcf	3,6	;RP1=0, select bank0
  1159  0798  1186               	bcf	6,3	;volatile
  1160  0799                     l1650:	
  1161                           
  1162                           ;Clock.c: 135:         PORTD=seg[m1];
  1163  0799  085F               	movf	_m1,w
  1164  079A  00D7               	movwf	??_main
  1165  079B  0757               	addwf	??_main,w
  1166  079C  3E20               	addlw	(low (_seg| 0))& (0+255)
  1167  079D  0084               	movwf	4
  1168  079E  1383               	bcf	3,7	;select IRP bank0
  1169  079F  0800               	movf	0,w
  1170  07A0  0088               	movwf	8	;volatile
  1171  07A1                     l1652:	
  1172                           
  1173                           ;Clock.c: 136:         RB2=1;
  1174  07A1  1506               	bsf	6,2	;volatile
  1175  07A2                     l1654:	
  1176                           
  1177                           ;Clock.c: 137:         _delay((unsigned long)((dly)*(16000000/4000.0)));
  1178  07A2  300B               	movlw	11
  1179  07A3  1283               	bcf	3,5	;RP0=0, select bank0
  1180  07A4  1303               	bcf	3,6	;RP1=0, select bank0
  1181  07A5  00D8               	movwf	??_main+1
  1182  07A6  3061               	movlw	97
  1183  07A7  00D7               	movwf	??_main
  1184  07A8                     u2607:	
  1185  07A8  0BD7               	decfsz	??_main,f
  1186  07A9  2FA8               	goto	u2607
  1187  07AA  0BD8               	decfsz	??_main+1,f
  1188  07AB  2FA8               	goto	u2607
  1189  07AC  2FAD               	nop2
  1190  07AD                     l1656:	
  1191                           
  1192                           ;Clock.c: 138:         RB2=0;
  1193  07AD  1283               	bcf	3,5	;RP0=0, select bank0
  1194  07AE  1303               	bcf	3,6	;RP1=0, select bank0
  1195  07AF  1106               	bcf	6,2	;volatile
  1196                           
  1197                           ;Clock.c: 139:         PORTD=seg[s2];
  1198  07B0  0861               	movf	_s2,w
  1199  07B1  00D7               	movwf	??_main
  1200  07B2  0757               	addwf	??_main,w
  1201  07B3  3E20               	addlw	(low (_seg| 0))& (0+255)
  1202  07B4  0084               	movwf	4
  1203  07B5  1383               	bcf	3,7	;select IRP bank0
  1204  07B6  0800               	movf	0,w
  1205  07B7  0088               	movwf	8	;volatile
  1206  07B8                     l1658:	
  1207                           
  1208                           ;Clock.c: 140:         RB1=1;
  1209  07B8  1486               	bsf	6,1	;volatile
  1210  07B9                     l1660:	
  1211                           
  1212                           ;Clock.c: 141:         _delay((unsigned long)((dly)*(16000000/4000.0)));
  1213  07B9  300B               	movlw	11
  1214  07BA  1283               	bcf	3,5	;RP0=0, select bank0
  1215  07BB  1303               	bcf	3,6	;RP1=0, select bank0
  1216  07BC  00D8               	movwf	??_main+1
  1217  07BD  3061               	movlw	97
  1218  07BE  00D7               	movwf	??_main
  1219  07BF                     u2617:	
  1220  07BF  0BD7               	decfsz	??_main,f
  1221  07C0  2FBF               	goto	u2617
  1222  07C1  0BD8               	decfsz	??_main+1,f
  1223  07C2  2FBF               	goto	u2617
  1224  07C3  2FC4               	nop2
  1225  07C4                     l1662:	
  1226                           
  1227                           ;Clock.c: 142:         RB1=0;
  1228  07C4  1283               	bcf	3,5	;RP0=0, select bank0
  1229  07C5  1303               	bcf	3,6	;RP1=0, select bank0
  1230  07C6  1086               	bcf	6,1	;volatile
  1231  07C7                     l1664:	
  1232                           
  1233                           ;Clock.c: 143:         PORTD=seg[s1];
  1234  07C7  0863               	movf	_s1,w
  1235  07C8  00D7               	movwf	??_main
  1236  07C9  0757               	addwf	??_main,w
  1237  07CA  3E20               	addlw	(low (_seg| 0))& (0+255)
  1238  07CB  0084               	movwf	4
  1239  07CC  1383               	bcf	3,7	;select IRP bank0
  1240  07CD  0800               	movf	0,w
  1241  07CE  0088               	movwf	8	;volatile
  1242  07CF                     l1666:	
  1243                           
  1244                           ;Clock.c: 144:         RB0=1;
  1245  07CF  1406               	bsf	6,0	;volatile
  1246                           
  1247                           ;Clock.c: 145:         _delay((unsigned long)((dly)*(16000000/4000.0)));
  1248  07D0  300B               	movlw	11
  1249  07D1  1283               	bcf	3,5	;RP0=0, select bank0
  1250  07D2  1303               	bcf	3,6	;RP1=0, select bank0
  1251  07D3  00D8               	movwf	??_main+1
  1252  07D4  3061               	movlw	97
  1253  07D5  00D7               	movwf	??_main
  1254  07D6                     u2627:	
  1255  07D6  0BD7               	decfsz	??_main,f
  1256  07D7  2FD6               	goto	u2627
  1257  07D8  0BD8               	decfsz	??_main+1,f
  1258  07D9  2FD6               	goto	u2627
  1259  07DA  2FDB               	nop2
  1260  07DB                     l1668:	
  1261                           
  1262                           ;Clock.c: 146:         RB0=0;
  1263  07DB  1283               	bcf	3,5	;RP0=0, select bank0
  1264  07DC  1303               	bcf	3,6	;RP1=0, select bank0
  1265  07DD  1006               	bcf	6,0	;volatile
  1266  07DE  2E13               	goto	l1528
  1267  07DF  120A  118A  2800   	ljmp	start
  1268  07E2                     __end_of_main:	
  1269                           
  1270                           	psect	text1
  1271  03EE                     __ptext1:	
  1272 ;; *************** function ___awmod *****************
  1273 ;; Defined at:
  1274 ;;		line 5 in file "E:\Applications\Microchip\xc8\v2.10\pic\sources\c90\common\awmod.c"
  1275 ;; Parameters:    Size  Location     Type
  1276 ;;  divisor         2    0[COMMON] int 
  1277 ;;  dividend        2    2[COMMON] int 
  1278 ;; Auto vars:     Size  Location     Type
  1279 ;;  sign            1    6[COMMON] unsigned char 
  1280 ;;  counter         1    5[COMMON] unsigned char 
  1281 ;; Return value:  Size  Location     Type
  1282 ;;                  2    0[COMMON] int 
  1283 ;; Registers used:
  1284 ;;		wreg, status,2, status,0
  1285 ;; Tracked objects:
  1286 ;;		On entry : 0/0
  1287 ;;		On exit  : 0/0
  1288 ;;		Unchanged: 0/0
  1289 ;; Data sizes:     COMMON   BANK0   BANK1   BANK3   BANK2
  1290 ;;      Params:         4       0       0       0       0
  1291 ;;      Locals:         2       0       0       0       0
  1292 ;;      Temps:          1       0       0       0       0
  1293 ;;      Totals:         7       0       0       0       0
  1294 ;;Total ram usage:        7 bytes
  1295 ;; Hardware stack levels used:    1
  1296 ;; This function calls:
  1297 ;;		Nothing
  1298 ;; This function is called by:
  1299 ;;		_main
  1300 ;;		_DEC_2_BCD
  1301 ;; This function uses a non-reentrant model
  1302 ;;
  1303                           
  1304                           
  1305                           ;psect for function ___awmod
  1306  03EE                     ___awmod:	
  1307  03EE                     l1484:	
  1308                           ;incstack = 0
  1309                           ; Regs used in ___awmod: [wreg+status,2+status,0]
  1310                           
  1311  03EE  01F6               	clrf	___awmod@sign
  1312  03EF                     l1486:	
  1313  03EF  1FF3               	btfss	___awmod@dividend+1,7
  1314  03F0  2BF2               	goto	u1601
  1315  03F1  2BF3               	goto	u1600
  1316  03F2                     u1601:	
  1317  03F2  2BFA               	goto	l1492
  1318  03F3                     u1600:	
  1319  03F3                     l1488:	
  1320  03F3  09F2               	comf	___awmod@dividend,f
  1321  03F4  09F3               	comf	___awmod@dividend+1,f
  1322  03F5  0AF2               	incf	___awmod@dividend,f
  1323  03F6  1903               	skipnz
  1324  03F7  0AF3               	incf	___awmod@dividend+1,f
  1325  03F8                     l1490:	
  1326  03F8  01F6               	clrf	___awmod@sign
  1327  03F9  0AF6               	incf	___awmod@sign,f
  1328  03FA                     l1492:	
  1329  03FA  1FF1               	btfss	___awmod@divisor+1,7
  1330  03FB  2BFD               	goto	u1611
  1331  03FC  2BFE               	goto	u1610
  1332  03FD                     u1611:	
  1333  03FD  2C03               	goto	l1496
  1334  03FE                     u1610:	
  1335  03FE                     l1494:	
  1336  03FE  09F0               	comf	___awmod@divisor,f
  1337  03FF  09F1               	comf	___awmod@divisor+1,f
  1338  0400  0AF0               	incf	___awmod@divisor,f
  1339  0401  1903               	skipnz
  1340  0402  0AF1               	incf	___awmod@divisor+1,f
  1341  0403                     l1496:	
  1342  0403  0870               	movf	___awmod@divisor,w
  1343  0404  0471               	iorwf	___awmod@divisor+1,w
  1344  0405  1903               	btfsc	3,2
  1345  0406  2C08               	goto	u1621
  1346  0407  2C09               	goto	u1620
  1347  0408                     u1621:	
  1348  0408  2C38               	goto	l1514
  1349  0409                     u1620:	
  1350  0409                     l1498:	
  1351  0409  01F5               	clrf	___awmod@counter
  1352  040A  0AF5               	incf	___awmod@counter,f
  1353  040B  2C17               	goto	l1504
  1354  040C                     l1500:	
  1355  040C  3001               	movlw	1
  1356  040D                     u1635:	
  1357  040D  1003               	clrc
  1358  040E  0DF0               	rlf	___awmod@divisor,f
  1359  040F  0DF1               	rlf	___awmod@divisor+1,f
  1360  0410  3EFF               	addlw	-1
  1361  0411  1D03               	skipz
  1362  0412  2C0D               	goto	u1635
  1363  0413                     l1502:	
  1364  0413  3001               	movlw	1
  1365  0414  00F4               	movwf	??___awmod
  1366  0415  0874               	movf	??___awmod,w
  1367  0416  07F5               	addwf	___awmod@counter,f
  1368  0417                     l1504:	
  1369  0417  1FF1               	btfss	___awmod@divisor+1,7
  1370  0418  2C1A               	goto	u1641
  1371  0419  2C1B               	goto	u1640
  1372  041A                     u1641:	
  1373  041A  2C0C               	goto	l1500
  1374  041B                     u1640:	
  1375  041B                     l1506:	
  1376  041B  0871               	movf	___awmod@divisor+1,w
  1377  041C  0273               	subwf	___awmod@dividend+1,w
  1378  041D  1D03               	skipz
  1379  041E  2C21               	goto	u1655
  1380  041F  0870               	movf	___awmod@divisor,w
  1381  0420  0272               	subwf	___awmod@dividend,w
  1382  0421                     u1655:	
  1383  0421  1C03               	skipc
  1384  0422  2C24               	goto	u1651
  1385  0423  2C25               	goto	u1650
  1386  0424                     u1651:	
  1387  0424  2C2B               	goto	l1510
  1388  0425                     u1650:	
  1389  0425                     l1508:	
  1390  0425  0870               	movf	___awmod@divisor,w
  1391  0426  02F2               	subwf	___awmod@dividend,f
  1392  0427  0871               	movf	___awmod@divisor+1,w
  1393  0428  1C03               	skipc
  1394  0429  03F3               	decf	___awmod@dividend+1,f
  1395  042A  02F3               	subwf	___awmod@dividend+1,f
  1396  042B                     l1510:	
  1397  042B  3001               	movlw	1
  1398  042C                     u1665:	
  1399  042C  1003               	clrc
  1400  042D  0CF1               	rrf	___awmod@divisor+1,f
  1401  042E  0CF0               	rrf	___awmod@divisor,f
  1402  042F  3EFF               	addlw	-1
  1403  0430  1D03               	skipz
  1404  0431  2C2C               	goto	u1665
  1405  0432                     l1512:	
  1406  0432  3001               	movlw	1
  1407  0433  02F5               	subwf	___awmod@counter,f
  1408  0434  1D03               	btfss	3,2
  1409  0435  2C37               	goto	u1671
  1410  0436  2C38               	goto	u1670
  1411  0437                     u1671:	
  1412  0437  2C1B               	goto	l1506
  1413  0438                     u1670:	
  1414  0438                     l1514:	
  1415  0438  0876               	movf	___awmod@sign,w
  1416  0439  1903               	btfsc	3,2
  1417  043A  2C3C               	goto	u1681
  1418  043B  2C3D               	goto	u1680
  1419  043C                     u1681:	
  1420  043C  2C42               	goto	l1518
  1421  043D                     u1680:	
  1422  043D                     l1516:	
  1423  043D  09F2               	comf	___awmod@dividend,f
  1424  043E  09F3               	comf	___awmod@dividend+1,f
  1425  043F  0AF2               	incf	___awmod@dividend,f
  1426  0440  1903               	skipnz
  1427  0441  0AF3               	incf	___awmod@dividend+1,f
  1428  0442                     l1518:	
  1429  0442  0873               	movf	___awmod@dividend+1,w
  1430  0443  00F1               	movwf	?___awmod+1
  1431  0444  0872               	movf	___awmod@dividend,w
  1432  0445  00F0               	movwf	?___awmod
  1433  0446                     l414:	
  1434  0446  0008               	return
  1435  0447                     __end_of___awmod:	
  1436                           
  1437                           	psect	text2
  1438  0447                     __ptext2:	
  1439 ;; *************** function ___awdiv *****************
  1440 ;; Defined at:
  1441 ;;		line 5 in file "E:\Applications\Microchip\xc8\v2.10\pic\sources\c90\common\awdiv.c"
  1442 ;; Parameters:    Size  Location     Type
  1443 ;;  divisor         2    0[COMMON] int 
  1444 ;;  dividend        2    2[COMMON] int 
  1445 ;; Auto vars:     Size  Location     Type
  1446 ;;  quotient        2    7[COMMON] int 
  1447 ;;  sign            1    6[COMMON] unsigned char 
  1448 ;;  counter         1    5[COMMON] unsigned char 
  1449 ;; Return value:  Size  Location     Type
  1450 ;;                  2    0[COMMON] int 
  1451 ;; Registers used:
  1452 ;;		wreg, status,2, status,0
  1453 ;; Tracked objects:
  1454 ;;		On entry : 0/0
  1455 ;;		On exit  : 0/0
  1456 ;;		Unchanged: 0/0
  1457 ;; Data sizes:     COMMON   BANK0   BANK1   BANK3   BANK2
  1458 ;;      Params:         4       0       0       0       0
  1459 ;;      Locals:         4       0       0       0       0
  1460 ;;      Temps:          1       0       0       0       0
  1461 ;;      Totals:         9       0       0       0       0
  1462 ;;Total ram usage:        9 bytes
  1463 ;; Hardware stack levels used:    1
  1464 ;; This function calls:
  1465 ;;		Nothing
  1466 ;; This function is called by:
  1467 ;;		_main
  1468 ;;		_DEC_2_BCD
  1469 ;; This function uses a non-reentrant model
  1470 ;;
  1471                           
  1472                           
  1473                           ;psect for function ___awdiv
  1474  0447                     ___awdiv:	
  1475  0447                     l1440:	
  1476                           ;incstack = 0
  1477                           ; Regs used in ___awdiv: [wreg+status,2+status,0]
  1478                           
  1479  0447  01F6               	clrf	___awdiv@sign
  1480  0448                     l1442:	
  1481  0448  1FF1               	btfss	___awdiv@divisor+1,7
  1482  0449  2C4B               	goto	u1501
  1483  044A  2C4C               	goto	u1500
  1484  044B                     u1501:	
  1485  044B  2C53               	goto	l1448
  1486  044C                     u1500:	
  1487  044C                     l1444:	
  1488  044C  09F0               	comf	___awdiv@divisor,f
  1489  044D  09F1               	comf	___awdiv@divisor+1,f
  1490  044E  0AF0               	incf	___awdiv@divisor,f
  1491  044F  1903               	skipnz
  1492  0450  0AF1               	incf	___awdiv@divisor+1,f
  1493  0451                     l1446:	
  1494  0451  01F6               	clrf	___awdiv@sign
  1495  0452  0AF6               	incf	___awdiv@sign,f
  1496  0453                     l1448:	
  1497  0453  1FF3               	btfss	___awdiv@dividend+1,7
  1498  0454  2C56               	goto	u1511
  1499  0455  2C57               	goto	u1510
  1500  0456                     u1511:	
  1501  0456  2C60               	goto	l1454
  1502  0457                     u1510:	
  1503  0457                     l1450:	
  1504  0457  09F2               	comf	___awdiv@dividend,f
  1505  0458  09F3               	comf	___awdiv@dividend+1,f
  1506  0459  0AF2               	incf	___awdiv@dividend,f
  1507  045A  1903               	skipnz
  1508  045B  0AF3               	incf	___awdiv@dividend+1,f
  1509  045C                     l1452:	
  1510  045C  3001               	movlw	1
  1511  045D  00F4               	movwf	??___awdiv
  1512  045E  0874               	movf	??___awdiv,w
  1513  045F  06F6               	xorwf	___awdiv@sign,f
  1514  0460                     l1454:	
  1515  0460  01F7               	clrf	___awdiv@quotient
  1516  0461  01F8               	clrf	___awdiv@quotient+1
  1517  0462                     l1456:	
  1518  0462  0870               	movf	___awdiv@divisor,w
  1519  0463  0471               	iorwf	___awdiv@divisor+1,w
  1520  0464  1903               	btfsc	3,2
  1521  0465  2C67               	goto	u1521
  1522  0466  2C68               	goto	u1520
  1523  0467                     u1521:	
  1524  0467  2C9F               	goto	l1476
  1525  0468                     u1520:	
  1526  0468                     l1458:	
  1527  0468  01F5               	clrf	___awdiv@counter
  1528  0469  0AF5               	incf	___awdiv@counter,f
  1529  046A  2C76               	goto	l1464
  1530  046B                     l1460:	
  1531  046B  3001               	movlw	1
  1532  046C                     u1535:	
  1533  046C  1003               	clrc
  1534  046D  0DF0               	rlf	___awdiv@divisor,f
  1535  046E  0DF1               	rlf	___awdiv@divisor+1,f
  1536  046F  3EFF               	addlw	-1
  1537  0470  1D03               	skipz
  1538  0471  2C6C               	goto	u1535
  1539  0472                     l1462:	
  1540  0472  3001               	movlw	1
  1541  0473  00F4               	movwf	??___awdiv
  1542  0474  0874               	movf	??___awdiv,w
  1543  0475  07F5               	addwf	___awdiv@counter,f
  1544  0476                     l1464:	
  1545  0476  1FF1               	btfss	___awdiv@divisor+1,7
  1546  0477  2C79               	goto	u1541
  1547  0478  2C7A               	goto	u1540
  1548  0479                     u1541:	
  1549  0479  2C6B               	goto	l1460
  1550  047A                     u1540:	
  1551  047A                     l1466:	
  1552  047A  3001               	movlw	1
  1553  047B                     u1555:	
  1554  047B  1003               	clrc
  1555  047C  0DF7               	rlf	___awdiv@quotient,f
  1556  047D  0DF8               	rlf	___awdiv@quotient+1,f
  1557  047E  3EFF               	addlw	-1
  1558  047F  1D03               	skipz
  1559  0480  2C7B               	goto	u1555
  1560  0481  0871               	movf	___awdiv@divisor+1,w
  1561  0482  0273               	subwf	___awdiv@dividend+1,w
  1562  0483  1D03               	skipz
  1563  0484  2C87               	goto	u1565
  1564  0485  0870               	movf	___awdiv@divisor,w
  1565  0486  0272               	subwf	___awdiv@dividend,w
  1566  0487                     u1565:	
  1567  0487  1C03               	skipc
  1568  0488  2C8A               	goto	u1561
  1569  0489  2C8B               	goto	u1560
  1570  048A                     u1561:	
  1571  048A  2C92               	goto	l1472
  1572  048B                     u1560:	
  1573  048B                     l1468:	
  1574  048B  0870               	movf	___awdiv@divisor,w
  1575  048C  02F2               	subwf	___awdiv@dividend,f
  1576  048D  0871               	movf	___awdiv@divisor+1,w
  1577  048E  1C03               	skipc
  1578  048F  03F3               	decf	___awdiv@dividend+1,f
  1579  0490  02F3               	subwf	___awdiv@dividend+1,f
  1580  0491                     l1470:	
  1581  0491  1477               	bsf	___awdiv@quotient,0
  1582  0492                     l1472:	
  1583  0492  3001               	movlw	1
  1584  0493                     u1575:	
  1585  0493  1003               	clrc
  1586  0494  0CF1               	rrf	___awdiv@divisor+1,f
  1587  0495  0CF0               	rrf	___awdiv@divisor,f
  1588  0496  3EFF               	addlw	-1
  1589  0497  1D03               	skipz
  1590  0498  2C93               	goto	u1575
  1591  0499                     l1474:	
  1592  0499  3001               	movlw	1
  1593  049A  02F5               	subwf	___awdiv@counter,f
  1594  049B  1D03               	btfss	3,2
  1595  049C  2C9E               	goto	u1581
  1596  049D  2C9F               	goto	u1580
  1597  049E                     u1581:	
  1598  049E  2C7A               	goto	l1466
  1599  049F                     u1580:	
  1600  049F                     l1476:	
  1601  049F  0876               	movf	___awdiv@sign,w
  1602  04A0  1903               	btfsc	3,2
  1603  04A1  2CA3               	goto	u1591
  1604  04A2  2CA4               	goto	u1590
  1605  04A3                     u1591:	
  1606  04A3  2CA9               	goto	l1480
  1607  04A4                     u1590:	
  1608  04A4                     l1478:	
  1609  04A4  09F7               	comf	___awdiv@quotient,f
  1610  04A5  09F8               	comf	___awdiv@quotient+1,f
  1611  04A6  0AF7               	incf	___awdiv@quotient,f
  1612  04A7  1903               	skipnz
  1613  04A8  0AF8               	incf	___awdiv@quotient+1,f
  1614  04A9                     l1480:	
  1615  04A9  0878               	movf	___awdiv@quotient+1,w
  1616  04AA  00F1               	movwf	?___awdiv+1
  1617  04AB  0877               	movf	___awdiv@quotient,w
  1618  04AC  00F0               	movwf	?___awdiv
  1619  04AD                     l401:	
  1620  04AD  0008               	return
  1621  04AE                     __end_of___awdiv:	
  1622                           
  1623                           	psect	text3
  1624  0516                     __ptext3:	
  1625 ;; *************** function _Update_Current_Date_Time *****************
  1626 ;; Defined at:
  1627 ;;		line 41 in file "./PIC16F877a_DS3231.h"
  1628 ;; Parameters:    Size  Location     Type
  1629 ;;		None
  1630 ;; Auto vars:     Size  Location     Type
  1631 ;;		None
  1632 ;; Return value:  Size  Location     Type
  1633 ;;                  1    wreg      void 
  1634 ;; Registers used:
  1635 ;;		wreg, status,2, status,0, pclath, cstack
  1636 ;; Tracked objects:
  1637 ;;		On entry : 0/0
  1638 ;;		On exit  : 0/0
  1639 ;;		Unchanged: 0/0
  1640 ;; Data sizes:     COMMON   BANK0   BANK1   BANK3   BANK2
  1641 ;;      Params:         0       0       0       0       0
  1642 ;;      Locals:         0       0       0       0       0
  1643 ;;      Temps:          0       0       0       0       0
  1644 ;;      Totals:         0       0       0       0       0
  1645 ;;Total ram usage:        0 bytes
  1646 ;; Hardware stack levels used:    1
  1647 ;; Hardware stack levels required when called:    2
  1648 ;; This function calls:
  1649 ;;		_BCD_2_DEC
  1650 ;;		_I2C_Begin
  1651 ;;		_I2C_End
  1652 ;;		_I2C_Read
  1653 ;;		_I2C_Write
  1654 ;; This function is called by:
  1655 ;;		_main
  1656 ;; This function uses a non-reentrant model
  1657 ;;
  1658                           
  1659                           
  1660                           ;psect for function _Update_Current_Date_Time
  1661  0516                     _Update_Current_Date_Time:	
  1662  0516                     l1438:	
  1663                           ;incstack = 0
  1664                           ; Regs used in _Update_Current_Date_Time: [wreg+status,2+status,0+pclath+cstack]
  1665                           
  1666                           
  1667                           ;./PIC16F877a_DS3231.h: 44:    I2C_Begin();
  1668  0516  120A  118A  2280  120A  118A  	fcall	_I2C_Begin
  1669                           
  1670                           ;./PIC16F877a_DS3231.h: 45:    I2C_Write(0xD0);
  1671  051B  30D0               	movlw	208
  1672  051C  00F0               	movwf	I2C_Write@data
  1673  051D  3000               	movlw	0
  1674  051E  00F1               	movwf	I2C_Write@data+1
  1675  051F  120A  118A  2292  120A  118A  	fcall	_I2C_Write
  1676                           
  1677                           ;./PIC16F877a_DS3231.h: 46:    I2C_Write(0);
  1678  0524  3000               	movlw	0
  1679  0525  00F0               	movwf	I2C_Write@data
  1680  0526  00F1               	movwf	I2C_Write@data+1
  1681  0527  120A  118A  2292  120A  118A  	fcall	_I2C_Write
  1682                           
  1683                           ;./PIC16F877a_DS3231.h: 47:    I2C_End();
  1684  052C  120A  118A  2289  120A  118A  	fcall	_I2C_End
  1685                           
  1686                           ;./PIC16F877a_DS3231.h: 50:    I2C_Begin();
  1687  0531  120A  118A  2280  120A  118A  	fcall	_I2C_Begin
  1688                           
  1689                           ;./PIC16F877a_DS3231.h: 51:    I2C_Write(0xD1);
  1690  0536  30D1               	movlw	209
  1691  0537  00F0               	movwf	I2C_Write@data
  1692  0538  3000               	movlw	0
  1693  0539  00F1               	movwf	I2C_Write@data+1
  1694  053A  120A  118A  2292  120A  118A  	fcall	_I2C_Write
  1695                           
  1696                           ;./PIC16F877a_DS3231.h: 52:    sec = BCD_2_DEC(I2C_Read(1));
  1697  053F  3001               	movlw	1
  1698  0540  00F0               	movwf	I2C_Read@ack
  1699  0541  3000               	movlw	0
  1700  0542  00F1               	movwf	I2C_Read@ack+1
  1701  0543  120A  118A  2328  120A  118A  	fcall	_I2C_Read
  1702  0548  0871               	movf	?_I2C_Read+1,w
  1703  0549  00F7               	movwf	BCD_2_DEC@to_convert+1
  1704  054A  0870               	movf	?_I2C_Read,w
  1705  054B  00F6               	movwf	BCD_2_DEC@to_convert
  1706  054C  120A  118A  2303  120A  118A  	fcall	_BCD_2_DEC
  1707  0551  0877               	movf	?_BCD_2_DEC+1,w
  1708  0552  1283               	bcf	3,5	;RP0=0, select bank0
  1709  0553  1303               	bcf	3,6	;RP1=0, select bank0
  1710  0554  00C1               	movwf	_sec+1
  1711  0555  0876               	movf	?_BCD_2_DEC,w
  1712  0556  00C0               	movwf	_sec
  1713                           
  1714                           ;./PIC16F877a_DS3231.h: 53:    min = BCD_2_DEC(I2C_Read(1));
  1715  0557  3001               	movlw	1
  1716  0558  00F0               	movwf	I2C_Read@ack
  1717  0559  3000               	movlw	0
  1718  055A  00F1               	movwf	I2C_Read@ack+1
  1719  055B  120A  118A  2328  120A  118A  	fcall	_I2C_Read
  1720  0560  0871               	movf	?_I2C_Read+1,w
  1721  0561  00F7               	movwf	BCD_2_DEC@to_convert+1
  1722  0562  0870               	movf	?_I2C_Read,w
  1723  0563  00F6               	movwf	BCD_2_DEC@to_convert
  1724  0564  120A  118A  2303  120A  118A  	fcall	_BCD_2_DEC
  1725  0569  0877               	movf	?_BCD_2_DEC+1,w
  1726  056A  1283               	bcf	3,5	;RP0=0, select bank0
  1727  056B  1303               	bcf	3,6	;RP1=0, select bank0
  1728  056C  00BF               	movwf	_min+1
  1729  056D  0876               	movf	?_BCD_2_DEC,w
  1730  056E  00BE               	movwf	_min
  1731                           
  1732                           ;./PIC16F877a_DS3231.h: 54:    hour = BCD_2_DEC(I2C_Read(1));
  1733  056F  3001               	movlw	1
  1734  0570  00F0               	movwf	I2C_Read@ack
  1735  0571  3000               	movlw	0
  1736  0572  00F1               	movwf	I2C_Read@ack+1
  1737  0573  120A  118A  2328  120A  118A  	fcall	_I2C_Read
  1738  0578  0871               	movf	?_I2C_Read+1,w
  1739  0579  00F7               	movwf	BCD_2_DEC@to_convert+1
  1740  057A  0870               	movf	?_I2C_Read,w
  1741  057B  00F6               	movwf	BCD_2_DEC@to_convert
  1742  057C  120A  118A  2303  120A  118A  	fcall	_BCD_2_DEC
  1743  0581  0877               	movf	?_BCD_2_DEC+1,w
  1744  0582  1283               	bcf	3,5	;RP0=0, select bank0
  1745  0583  1303               	bcf	3,6	;RP1=0, select bank0
  1746  0584  00BD               	movwf	_hour+1
  1747  0585  0876               	movf	?_BCD_2_DEC,w
  1748  0586  00BC               	movwf	_hour
  1749                           
  1750                           ;./PIC16F877a_DS3231.h: 55:    I2C_Read(1);
  1751  0587  3001               	movlw	1
  1752  0588  00F0               	movwf	I2C_Read@ack
  1753  0589  3000               	movlw	0
  1754  058A  00F1               	movwf	I2C_Read@ack+1
  1755  058B  120A  118A  2328  120A  118A  	fcall	_I2C_Read
  1756                           
  1757                           ;./PIC16F877a_DS3231.h: 56:    date = BCD_2_DEC(I2C_Read(1));
  1758  0590  3001               	movlw	1
  1759  0591  00F0               	movwf	I2C_Read@ack
  1760  0592  3000               	movlw	0
  1761  0593  00F1               	movwf	I2C_Read@ack+1
  1762  0594  120A  118A  2328  120A  118A  	fcall	_I2C_Read
  1763  0599  0871               	movf	?_I2C_Read+1,w
  1764  059A  00F7               	movwf	BCD_2_DEC@to_convert+1
  1765  059B  0870               	movf	?_I2C_Read,w
  1766  059C  00F6               	movwf	BCD_2_DEC@to_convert
  1767  059D  120A  118A  2303  120A  118A  	fcall	_BCD_2_DEC
  1768  05A2  0877               	movf	?_BCD_2_DEC+1,w
  1769  05A3  1283               	bcf	3,5	;RP0=0, select bank0
  1770  05A4  1303               	bcf	3,6	;RP1=0, select bank0
  1771  05A5  00BB               	movwf	_date+1
  1772  05A6  0876               	movf	?_BCD_2_DEC,w
  1773  05A7  00BA               	movwf	_date
  1774                           
  1775                           ;./PIC16F877a_DS3231.h: 57:    month = BCD_2_DEC(I2C_Read(1));
  1776  05A8  3001               	movlw	1
  1777  05A9  00F0               	movwf	I2C_Read@ack
  1778  05AA  3000               	movlw	0
  1779  05AB  00F1               	movwf	I2C_Read@ack+1
  1780  05AC  120A  118A  2328  120A  118A  	fcall	_I2C_Read
  1781  05B1  0871               	movf	?_I2C_Read+1,w
  1782  05B2  00F7               	movwf	BCD_2_DEC@to_convert+1
  1783  05B3  0870               	movf	?_I2C_Read,w
  1784  05B4  00F6               	movwf	BCD_2_DEC@to_convert
  1785  05B5  120A  118A  2303  120A  118A  	fcall	_BCD_2_DEC
  1786  05BA  0877               	movf	?_BCD_2_DEC+1,w
  1787  05BB  1283               	bcf	3,5	;RP0=0, select bank0
  1788  05BC  1303               	bcf	3,6	;RP1=0, select bank0
  1789  05BD  00B9               	movwf	_month+1
  1790  05BE  0876               	movf	?_BCD_2_DEC,w
  1791  05BF  00B8               	movwf	_month
  1792                           
  1793                           ;./PIC16F877a_DS3231.h: 58:    year = BCD_2_DEC(I2C_Read(1));
  1794  05C0  3001               	movlw	1
  1795  05C1  00F0               	movwf	I2C_Read@ack
  1796  05C2  3000               	movlw	0
  1797  05C3  00F1               	movwf	I2C_Read@ack+1
  1798  05C4  120A  118A  2328  120A  118A  	fcall	_I2C_Read
  1799  05C9  0871               	movf	?_I2C_Read+1,w
  1800  05CA  00F7               	movwf	BCD_2_DEC@to_convert+1
  1801  05CB  0870               	movf	?_I2C_Read,w
  1802  05CC  00F6               	movwf	BCD_2_DEC@to_convert
  1803  05CD  120A  118A  2303  120A  118A  	fcall	_BCD_2_DEC
  1804  05D2  0877               	movf	?_BCD_2_DEC+1,w
  1805  05D3  1283               	bcf	3,5	;RP0=0, select bank0
  1806  05D4  1303               	bcf	3,6	;RP1=0, select bank0
  1807  05D5  00B7               	movwf	_year+1
  1808  05D6  0876               	movf	?_BCD_2_DEC,w
  1809  05D7  00B6               	movwf	_year
  1810                           
  1811                           ;./PIC16F877a_DS3231.h: 59:    I2C_End();
  1812  05D8  120A  118A  2289  120A  118A  	fcall	_I2C_End
  1813                           
  1814                           ;./PIC16F877a_DS3231.h: 62:     I2C_Begin();
  1815  05DD  120A  118A  2280  120A  118A  	fcall	_I2C_Begin
  1816                           
  1817                           ;./PIC16F877a_DS3231.h: 63:     I2C_Write(0xD1);
  1818  05E2  30D1               	movlw	209
  1819  05E3  00F0               	movwf	I2C_Write@data
  1820  05E4  3000               	movlw	0
  1821  05E5  00F1               	movwf	I2C_Write@data+1
  1822  05E6  120A  118A  2292  120A  118A  	fcall	_I2C_Write
  1823                           
  1824                           ;./PIC16F877a_DS3231.h: 64:     I2C_Read(1);
  1825  05EB  3001               	movlw	1
  1826  05EC  00F0               	movwf	I2C_Read@ack
  1827  05ED  3000               	movlw	0
  1828  05EE  00F1               	movwf	I2C_Read@ack+1
  1829  05EF  120A  118A  2328  120A  118A  	fcall	_I2C_Read
  1830                           
  1831                           ;./PIC16F877a_DS3231.h: 65:     I2C_End();
  1832  05F4  120A  118A  2289  120A  118A  	fcall	_I2C_End
  1833  05F9                     l107:	
  1834  05F9  0008               	return
  1835  05FA                     __end_of_Update_Current_Date_Time:	
  1836                           
  1837                           	psect	text4
  1838  0292                     __ptext4:	
  1839 ;; *************** function _I2C_Write *****************
  1840 ;; Defined at:
  1841 ;;		line 40 in file "./PIC16F877a_I2C.h"
  1842 ;; Parameters:    Size  Location     Type
  1843 ;;  data            2    0[COMMON] unsigned int 
  1844 ;; Auto vars:     Size  Location     Type
  1845 ;;		None
  1846 ;; Return value:  Size  Location     Type
  1847 ;;                  1    wreg      void 
  1848 ;; Registers used:
  1849 ;;		wreg, status,2, status,0, pclath, cstack
  1850 ;; Tracked objects:
  1851 ;;		On entry : 0/0
  1852 ;;		On exit  : 0/0
  1853 ;;		Unchanged: 0/0
  1854 ;; Data sizes:     COMMON   BANK0   BANK1   BANK3   BANK2
  1855 ;;      Params:         2       0       0       0       0
  1856 ;;      Locals:         0       0       0       0       0
  1857 ;;      Temps:          0       0       0       0       0
  1858 ;;      Totals:         2       0       0       0       0
  1859 ;;Total ram usage:        2 bytes
  1860 ;; Hardware stack levels used:    1
  1861 ;; Hardware stack levels required when called:    1
  1862 ;; This function calls:
  1863 ;;		_I2C_Hold
  1864 ;; This function is called by:
  1865 ;;		_Update_Current_Date_Time
  1866 ;;		_Set_Time_Date
  1867 ;; This function uses a non-reentrant model
  1868 ;;
  1869                           
  1870                           
  1871                           ;psect for function _I2C_Write
  1872  0292                     _I2C_Write:	
  1873  0292                     l1362:	
  1874                           ;incstack = 0
  1875                           ; Regs used in _I2C_Write: [wreg+status,2+status,0+pclath+cstack]
  1876                           
  1877                           
  1878                           ;./PIC16F877a_I2C.h: 40: void I2C_Write(unsigned data);./PIC16F877a_I2C.h: 41: {;./PIC16
      +                          F877a_I2C.h: 42:   I2C_Hold();
  1879  0292  120A  118A  229C  120A  118A  	fcall	_I2C_Hold
  1880  0297                     l1364:	
  1881                           
  1882                           ;./PIC16F877a_I2C.h: 43:   SSPBUF = data;
  1883  0297  0870               	movf	I2C_Write@data,w
  1884  0298  1283               	bcf	3,5	;RP0=0, select bank0
  1885  0299  1303               	bcf	3,6	;RP1=0, select bank0
  1886  029A  0093               	movwf	19	;volatile
  1887  029B                     l92:	
  1888  029B  0008               	return
  1889  029C                     __end_of_I2C_Write:	
  1890                           
  1891                           	psect	text5
  1892  0328                     __ptext5:	
  1893 ;; *************** function _I2C_Read *****************
  1894 ;; Defined at:
  1895 ;;		line 46 in file "./PIC16F877a_I2C.h"
  1896 ;; Parameters:    Size  Location     Type
  1897 ;;  ack             2    0[COMMON] unsigned short 
  1898 ;; Auto vars:     Size  Location     Type
  1899 ;;  incoming        2    4[COMMON] unsigned short 
  1900 ;; Return value:  Size  Location     Type
  1901 ;;                  2    0[COMMON] unsigned short 
  1902 ;; Registers used:
  1903 ;;		wreg, status,2, status,0, pclath, cstack
  1904 ;; Tracked objects:
  1905 ;;		On entry : 0/0
  1906 ;;		On exit  : 0/0
  1907 ;;		Unchanged: 0/0
  1908 ;; Data sizes:     COMMON   BANK0   BANK1   BANK3   BANK2
  1909 ;;      Params:         2       0       0       0       0
  1910 ;;      Locals:         2       0       0       0       0
  1911 ;;      Temps:          2       0       0       0       0
  1912 ;;      Totals:         6       0       0       0       0
  1913 ;;Total ram usage:        6 bytes
  1914 ;; Hardware stack levels used:    1
  1915 ;; Hardware stack levels required when called:    1
  1916 ;; This function calls:
  1917 ;;		_I2C_Hold
  1918 ;; This function is called by:
  1919 ;;		_Update_Current_Date_Time
  1920 ;; This function uses a non-reentrant model
  1921 ;;
  1922                           
  1923                           
  1924                           ;psect for function _I2C_Read
  1925  0328                     _I2C_Read:	
  1926  0328                     l1366:	
  1927                           ;incstack = 0
  1928                           ; Regs used in _I2C_Read: [wreg+status,2+status,0+pclath+cstack]
  1929                           
  1930                           
  1931                           ;./PIC16F877a_I2C.h: 46: unsigned short I2C_Read(unsigned short ack);./PIC16F877a_I2C.h:
      +                           47: {;./PIC16F877a_I2C.h: 48:   unsigned short incoming;;./PIC16F877a_I2C.h: 49:   I2C_
      +                          Hold();
  1932  0328  120A  118A  229C  120A  118A  	fcall	_I2C_Hold
  1933  032D                     l1368:	
  1934                           
  1935                           ;./PIC16F877a_I2C.h: 50:   RCEN = 1;
  1936  032D  1683               	bsf	3,5	;RP0=1, select bank1
  1937  032E  1303               	bcf	3,6	;RP1=0, select bank1
  1938  032F  1591               	bsf	17,3	;volatile
  1939                           
  1940                           ;./PIC16F877a_I2C.h: 52:   I2C_Hold();
  1941  0330  120A  118A  229C  120A  118A  	fcall	_I2C_Hold
  1942  0335                     l1370:	
  1943                           
  1944                           ;./PIC16F877a_I2C.h: 53:   incoming = SSPBUF;
  1945  0335  1283               	bcf	3,5	;RP0=0, select bank0
  1946  0336  1303               	bcf	3,6	;RP1=0, select bank0
  1947  0337  0813               	movf	19,w	;volatile
  1948  0338  00F2               	movwf	??_I2C_Read
  1949  0339  01F3               	clrf	??_I2C_Read+1
  1950  033A  0872               	movf	??_I2C_Read,w
  1951  033B  00F4               	movwf	I2C_Read@incoming
  1952  033C  0873               	movf	??_I2C_Read+1,w
  1953  033D  00F5               	movwf	I2C_Read@incoming+1
  1954  033E                     l1372:	
  1955                           
  1956                           ;./PIC16F877a_I2C.h: 55:   I2C_Hold();
  1957  033E  120A  118A  229C  120A  118A  	fcall	_I2C_Hold
  1958  0343                     l1374:	
  1959                           
  1960                           ;./PIC16F877a_I2C.h: 56:   ACKDT = (ack)?0:1;
  1961  0343  0870               	movf	I2C_Read@ack,w
  1962  0344  0471               	iorwf	I2C_Read@ack+1,w
  1963  0345  1903               	btfsc	3,2
  1964  0346  2B48               	goto	u1351
  1965  0347  2B4C               	goto	u1350
  1966  0348                     u1351:	
  1967  0348  1683               	bsf	3,5	;RP0=1, select bank1
  1968  0349  1303               	bcf	3,6	;RP1=0, select bank1
  1969  034A  1691               	bsf	17,5	;volatile
  1970  034B  2B4F               	goto	u1364
  1971  034C                     u1350:	
  1972  034C  1683               	bsf	3,5	;RP0=1, select bank1
  1973  034D  1303               	bcf	3,6	;RP1=0, select bank1
  1974  034E  1291               	bcf	17,5	;volatile
  1975  034F                     u1364:	
  1976  034F                     l1376:	
  1977                           
  1978                           ;./PIC16F877a_I2C.h: 57:   ACKEN = 1;
  1979  034F  1611               	bsf	17,4	;volatile
  1980  0350                     l1378:	
  1981                           
  1982                           ;./PIC16F877a_I2C.h: 59:   return incoming;
  1983  0350  0875               	movf	I2C_Read@incoming+1,w
  1984  0351  00F1               	movwf	?_I2C_Read+1
  1985  0352  0874               	movf	I2C_Read@incoming,w
  1986  0353  00F0               	movwf	?_I2C_Read
  1987  0354                     l95:	
  1988  0354  0008               	return
  1989  0355                     __end_of_I2C_Read:	
  1990                           
  1991                           	psect	text6
  1992  0289                     __ptext6:	
  1993 ;; *************** function _I2C_End *****************
  1994 ;; Defined at:
  1995 ;;		line 34 in file "./PIC16F877a_I2C.h"
  1996 ;; Parameters:    Size  Location     Type
  1997 ;;		None
  1998 ;; Auto vars:     Size  Location     Type
  1999 ;;		None
  2000 ;; Return value:  Size  Location     Type
  2001 ;;                  1    wreg      void 
  2002 ;; Registers used:
  2003 ;;		wreg, status,2, status,0, pclath, cstack
  2004 ;; Tracked objects:
  2005 ;;		On entry : 0/0
  2006 ;;		On exit  : 0/0
  2007 ;;		Unchanged: 0/0
  2008 ;; Data sizes:     COMMON   BANK0   BANK1   BANK3   BANK2
  2009 ;;      Params:         0       0       0       0       0
  2010 ;;      Locals:         0       0       0       0       0
  2011 ;;      Temps:          0       0       0       0       0
  2012 ;;      Totals:         0       0       0       0       0
  2013 ;;Total ram usage:        0 bytes
  2014 ;; Hardware stack levels used:    1
  2015 ;; Hardware stack levels required when called:    1
  2016 ;; This function calls:
  2017 ;;		_I2C_Hold
  2018 ;; This function is called by:
  2019 ;;		_Update_Current_Date_Time
  2020 ;;		_Set_Time_Date
  2021 ;; This function uses a non-reentrant model
  2022 ;;
  2023                           
  2024                           
  2025                           ;psect for function _I2C_End
  2026  0289                     _I2C_End:	
  2027  0289                     l1358:	
  2028                           ;incstack = 0
  2029                           ; Regs used in _I2C_End: [wreg+status,2+status,0+pclath+cstack]
  2030                           
  2031                           
  2032                           ;./PIC16F877a_I2C.h: 36:   I2C_Hold();
  2033  0289  120A  118A  229C  120A  118A  	fcall	_I2C_Hold
  2034  028E                     l1360:	
  2035                           
  2036                           ;./PIC16F877a_I2C.h: 37:   PEN = 1;
  2037  028E  1683               	bsf	3,5	;RP0=1, select bank1
  2038  028F  1303               	bcf	3,6	;RP1=0, select bank1
  2039  0290  1511               	bsf	17,2	;volatile
  2040  0291                     l89:	
  2041  0291  0008               	return
  2042  0292                     __end_of_I2C_End:	
  2043                           
  2044                           	psect	text7
  2045  0280                     __ptext7:	
  2046 ;; *************** function _I2C_Begin *****************
  2047 ;; Defined at:
  2048 ;;		line 26 in file "./PIC16F877a_I2C.h"
  2049 ;; Parameters:    Size  Location     Type
  2050 ;;		None
  2051 ;; Auto vars:     Size  Location     Type
  2052 ;;		None
  2053 ;; Return value:  Size  Location     Type
  2054 ;;                  1    wreg      void 
  2055 ;; Registers used:
  2056 ;;		wreg, status,2, status,0, pclath, cstack
  2057 ;; Tracked objects:
  2058 ;;		On entry : 0/0
  2059 ;;		On exit  : 0/0
  2060 ;;		Unchanged: 0/0
  2061 ;; Data sizes:     COMMON   BANK0   BANK1   BANK3   BANK2
  2062 ;;      Params:         0       0       0       0       0
  2063 ;;      Locals:         0       0       0       0       0
  2064 ;;      Temps:          0       0       0       0       0
  2065 ;;      Totals:         0       0       0       0       0
  2066 ;;Total ram usage:        0 bytes
  2067 ;; Hardware stack levels used:    1
  2068 ;; Hardware stack levels required when called:    1
  2069 ;; This function calls:
  2070 ;;		_I2C_Hold
  2071 ;; This function is called by:
  2072 ;;		_Update_Current_Date_Time
  2073 ;;		_Set_Time_Date
  2074 ;; This function uses a non-reentrant model
  2075 ;;
  2076                           
  2077                           
  2078                           ;psect for function _I2C_Begin
  2079  0280                     _I2C_Begin:	
  2080  0280                     l1354:	
  2081                           ;incstack = 0
  2082                           ; Regs used in _I2C_Begin: [wreg+status,2+status,0+pclath+cstack]
  2083                           
  2084                           
  2085                           ;./PIC16F877a_I2C.h: 28:   I2C_Hold();
  2086  0280  120A  118A  229C  120A  118A  	fcall	_I2C_Hold
  2087  0285                     l1356:	
  2088                           
  2089                           ;./PIC16F877a_I2C.h: 29:   SEN = 1;
  2090  0285  1683               	bsf	3,5	;RP0=1, select bank1
  2091  0286  1303               	bcf	3,6	;RP1=0, select bank1
  2092  0287  1411               	bsf	17,0	;volatile
  2093  0288                     l86:	
  2094  0288  0008               	return
  2095  0289                     __end_of_I2C_Begin:	
  2096                           
  2097                           	psect	text8
  2098  029C                     __ptext8:	
  2099 ;; *************** function _I2C_Hold *****************
  2100 ;; Defined at:
  2101 ;;		line 21 in file "./PIC16F877a_I2C.h"
  2102 ;; Parameters:    Size  Location     Type
  2103 ;;		None
  2104 ;; Auto vars:     Size  Location     Type
  2105 ;;		None
  2106 ;; Return value:  Size  Location     Type
  2107 ;;                  1    wreg      void 
  2108 ;; Registers used:
  2109 ;;		wreg, status,2
  2110 ;; Tracked objects:
  2111 ;;		On entry : 0/0
  2112 ;;		On exit  : 0/0
  2113 ;;		Unchanged: 0/0
  2114 ;; Data sizes:     COMMON   BANK0   BANK1   BANK3   BANK2
  2115 ;;      Params:         0       0       0       0       0
  2116 ;;      Locals:         0       0       0       0       0
  2117 ;;      Temps:          0       0       0       0       0
  2118 ;;      Totals:         0       0       0       0       0
  2119 ;;Total ram usage:        0 bytes
  2120 ;; Hardware stack levels used:    1
  2121 ;; This function calls:
  2122 ;;		Nothing
  2123 ;; This function is called by:
  2124 ;;		_I2C_Begin
  2125 ;;		_I2C_End
  2126 ;;		_I2C_Write
  2127 ;;		_I2C_Read
  2128 ;; This function uses a non-reentrant model
  2129 ;;
  2130                           
  2131                           
  2132                           ;psect for function _I2C_Hold
  2133  029C                     _I2C_Hold:	
  2134  029C                     l1334:	
  2135                           ;incstack = 0
  2136                           ; Regs used in _I2C_Hold: [wreg+status,2]
  2137                           
  2138  029C                     l1336:	
  2139                           ;./PIC16F877a_I2C.h: 23:     while ( (SSPCON2 & 0b00011111) || (SSPSTAT & 0b00000100) ) 
      +                          ;
  2140                           
  2141  029C  1683               	bsf	3,5	;RP0=1, select bank1
  2142  029D  1303               	bcf	3,6	;RP1=0, select bank1
  2143  029E  0811               	movf	17,w	;volatile
  2144  029F  391F               	andlw	31
  2145  02A0  1D03               	btfss	3,2
  2146  02A1  2AA3               	goto	u1291
  2147  02A2  2AA4               	goto	u1290
  2148  02A3                     u1291:	
  2149  02A3  2A9C               	goto	l1336
  2150  02A4                     u1290:	
  2151  02A4                     l1338:	
  2152  02A4  1914               	btfsc	20,2	;volatile
  2153  02A5  2AA7               	goto	u1301
  2154  02A6  2AA8               	goto	u1300
  2155  02A7                     u1301:	
  2156  02A7  2A9C               	goto	l1336
  2157  02A8                     u1300:	
  2158  02A8                     l83:	
  2159  02A8  0008               	return
  2160  02A9                     __end_of_I2C_Hold:	
  2161                           
  2162                           	psect	text9
  2163  0303                     __ptext9:	
  2164 ;; *************** function _BCD_2_DEC *****************
  2165 ;; Defined at:
  2166 ;;		line 16 in file "./PIC16F877a_DS3231.h"
  2167 ;; Parameters:    Size  Location     Type
  2168 ;;  to_convert      2    6[COMMON] int 
  2169 ;; Auto vars:     Size  Location     Type
  2170 ;;		None
  2171 ;; Return value:  Size  Location     Type
  2172 ;;                  2    6[COMMON] int 
  2173 ;; Registers used:
  2174 ;;		wreg, status,2, status,0, pclath, cstack
  2175 ;; Tracked objects:
  2176 ;;		On entry : 0/0
  2177 ;;		On exit  : 0/0
  2178 ;;		Unchanged: 0/0
  2179 ;; Data sizes:     COMMON   BANK0   BANK1   BANK3   BANK2
  2180 ;;      Params:         2       0       0       0       0
  2181 ;;      Locals:         0       0       0       0       0
  2182 ;;      Temps:          2       0       0       0       0
  2183 ;;      Totals:         4       0       0       0       0
  2184 ;;Total ram usage:        4 bytes
  2185 ;; Hardware stack levels used:    1
  2186 ;; Hardware stack levels required when called:    1
  2187 ;; This function calls:
  2188 ;;		___wmul
  2189 ;; This function is called by:
  2190 ;;		_Update_Current_Date_Time
  2191 ;; This function uses a non-reentrant model
  2192 ;;
  2193                           
  2194                           
  2195                           ;psect for function _BCD_2_DEC
  2196  0303                     _BCD_2_DEC:	
  2197  0303                     l1382:	
  2198                           ;incstack = 0
  2199                           ; Regs used in _BCD_2_DEC: [wreg+status,2+status,0+pclath+cstack]
  2200                           
  2201                           
  2202                           ;./PIC16F877a_DS3231.h: 16: int BCD_2_DEC(int to_convert);./PIC16F877a_DS3231.h: 17: {;.
      +                          /PIC16F877a_DS3231.h: 18:    return (to_convert >> 4) * 10 + (to_convert & 0x0F);
  2203  0303  300F               	movlw	15
  2204  0304  0576               	andwf	BCD_2_DEC@to_convert,w
  2205  0305  00F8               	movwf	??_BCD_2_DEC
  2206  0306  3000               	movlw	0
  2207  0307  0577               	andwf	BCD_2_DEC@to_convert+1,w
  2208  0308  00F9               	movwf	??_BCD_2_DEC+1
  2209  0309  0E76               	swapf	BCD_2_DEC@to_convert,w
  2210  030A  390F               	andlw	15
  2211  030B  00F0               	movwf	___wmul@multiplier
  2212  030C  0E77               	swapf	BCD_2_DEC@to_convert+1,w
  2213  030D  39F0               	andlw	240
  2214  030E  04F0               	iorwf	___wmul@multiplier,f
  2215  030F  0E77               	swapf	BCD_2_DEC@to_convert+1,w
  2216  0310  390F               	andlw	15
  2217  0311  00F1               	movwf	___wmul@multiplier+1
  2218  0312  30F0               	movlw	240
  2219  0313  1DF1               	btfss	___wmul@multiplier+1,3
  2220  0314  3000               	movlw	0
  2221  0315  04F1               	iorwf	___wmul@multiplier+1,f
  2222  0316  300A               	movlw	10
  2223  0317  00F2               	movwf	___wmul@multiplicand
  2224  0318  3000               	movlw	0
  2225  0319  00F3               	movwf	___wmul@multiplicand+1
  2226  031A  120A  118A  22DE  120A  118A  	fcall	___wmul
  2227  031F  0878               	movf	??_BCD_2_DEC,w
  2228  0320  0770               	addwf	?___wmul,w
  2229  0321  00F6               	movwf	?_BCD_2_DEC
  2230  0322  0879               	movf	??_BCD_2_DEC+1,w
  2231  0323  1803               	skipnc
  2232  0324  0A79               	incf	??_BCD_2_DEC+1,w
  2233  0325  0771               	addwf	?___wmul+1,w
  2234  0326  00F7               	movwf	?_BCD_2_DEC+1
  2235  0327                     l98:	
  2236  0327  0008               	return
  2237  0328                     __end_of_BCD_2_DEC:	
  2238                           
  2239                           	psect	text10
  2240  02DE                     __ptext10:	
  2241 ;; *************** function ___wmul *****************
  2242 ;; Defined at:
  2243 ;;		line 15 in file "E:\Applications\Microchip\xc8\v2.10\pic\sources\c90\common\Umul16.c"
  2244 ;; Parameters:    Size  Location     Type
  2245 ;;  multiplier      2    0[COMMON] unsigned int 
  2246 ;;  multiplicand    2    2[COMMON] unsigned int 
  2247 ;; Auto vars:     Size  Location     Type
  2248 ;;  product         2    4[COMMON] unsigned int 
  2249 ;; Return value:  Size  Location     Type
  2250 ;;                  2    0[COMMON] unsigned int 
  2251 ;; Registers used:
  2252 ;;		wreg, status,2, status,0
  2253 ;; Tracked objects:
  2254 ;;		On entry : 0/0
  2255 ;;		On exit  : 0/0
  2256 ;;		Unchanged: 0/0
  2257 ;; Data sizes:     COMMON   BANK0   BANK1   BANK3   BANK2
  2258 ;;      Params:         4       0       0       0       0
  2259 ;;      Locals:         2       0       0       0       0
  2260 ;;      Temps:          0       0       0       0       0
  2261 ;;      Totals:         6       0       0       0       0
  2262 ;;Total ram usage:        6 bytes
  2263 ;; Hardware stack levels used:    1
  2264 ;; This function calls:
  2265 ;;		Nothing
  2266 ;; This function is called by:
  2267 ;;		_BCD_2_DEC
  2268 ;; This function uses a non-reentrant model
  2269 ;;
  2270                           
  2271                           
  2272                           ;psect for function ___wmul
  2273  02DE                     ___wmul:	
  2274  02DE                     l1340:	
  2275                           ;incstack = 0
  2276                           ; Regs used in ___wmul: [wreg+status,2+status,0]
  2277                           
  2278  02DE  01F4               	clrf	___wmul@product
  2279  02DF  01F5               	clrf	___wmul@product+1
  2280  02E0                     l1342:	
  2281  02E0  1C70               	btfss	___wmul@multiplier,0
  2282  02E1  2AE3               	goto	u1311
  2283  02E2  2AE4               	goto	u1310
  2284  02E3                     u1311:	
  2285  02E3  2AEA               	goto	l248
  2286  02E4                     u1310:	
  2287  02E4                     l1344:	
  2288  02E4  0872               	movf	___wmul@multiplicand,w
  2289  02E5  07F4               	addwf	___wmul@product,f
  2290  02E6  1803               	skipnc
  2291  02E7  0AF5               	incf	___wmul@product+1,f
  2292  02E8  0873               	movf	___wmul@multiplicand+1,w
  2293  02E9  07F5               	addwf	___wmul@product+1,f
  2294  02EA                     l248:	
  2295  02EA  3001               	movlw	1
  2296  02EB                     u1325:	
  2297  02EB  1003               	clrc
  2298  02EC  0DF2               	rlf	___wmul@multiplicand,f
  2299  02ED  0DF3               	rlf	___wmul@multiplicand+1,f
  2300  02EE  3EFF               	addlw	-1
  2301  02EF  1D03               	skipz
  2302  02F0  2AEB               	goto	u1325
  2303  02F1                     l1346:	
  2304  02F1  3001               	movlw	1
  2305  02F2                     u1335:	
  2306  02F2  1003               	clrc
  2307  02F3  0CF1               	rrf	___wmul@multiplier+1,f
  2308  02F4  0CF0               	rrf	___wmul@multiplier,f
  2309  02F5  3EFF               	addlw	-1
  2310  02F6  1D03               	skipz
  2311  02F7  2AF2               	goto	u1335
  2312  02F8                     l1348:	
  2313  02F8  0870               	movf	___wmul@multiplier,w
  2314  02F9  0471               	iorwf	___wmul@multiplier+1,w
  2315  02FA  1D03               	btfss	3,2
  2316  02FB  2AFD               	goto	u1341
  2317  02FC  2AFE               	goto	u1340
  2318  02FD                     u1341:	
  2319  02FD  2AE0               	goto	l1342
  2320  02FE                     u1340:	
  2321  02FE                     l1350:	
  2322  02FE  0875               	movf	___wmul@product+1,w
  2323  02FF  00F1               	movwf	?___wmul+1
  2324  0300  0874               	movf	___wmul@product,w
  2325  0301  00F0               	movwf	?___wmul
  2326  0302                     l250:	
  2327  0302  0008               	return
  2328  0303                     __end_of___wmul:	
  2329                           
  2330                           	psect	text11
  2331  039B                     __ptext11:	
  2332 ;; *************** function _I2C_Initialize *****************
  2333 ;; Defined at:
  2334 ;;		line 10 in file "./PIC16F877a_I2C.h"
  2335 ;; Parameters:    Size  Location     Type
  2336 ;;  feq_K           4   13[BANK0 ] const unsigned long 
  2337 ;; Auto vars:     Size  Location     Type
  2338 ;;		None
  2339 ;; Return value:  Size  Location     Type
  2340 ;;                  1    wreg      void 
  2341 ;; Registers used:
  2342 ;;		wreg, status,2, status,0, pclath, cstack
  2343 ;; Tracked objects:
  2344 ;;		On entry : 0/0
  2345 ;;		On exit  : 0/0
  2346 ;;		Unchanged: 0/0
  2347 ;; Data sizes:     COMMON   BANK0   BANK1   BANK3   BANK2
  2348 ;;      Params:         0       4       0       0       0
  2349 ;;      Locals:         0       0       0       0       0
  2350 ;;      Temps:          0       4       0       0       0
  2351 ;;      Totals:         0       8       0       0       0
  2352 ;;Total ram usage:        8 bytes
  2353 ;; Hardware stack levels used:    1
  2354 ;; Hardware stack levels required when called:    1
  2355 ;; This function calls:
  2356 ;;		___lldiv
  2357 ;;		___lmul
  2358 ;; This function is called by:
  2359 ;;		_main
  2360 ;; This function uses a non-reentrant model
  2361 ;;
  2362                           
  2363                           
  2364                           ;psect for function _I2C_Initialize
  2365  039B                     _I2C_Initialize:	
  2366  039B                     l1424:	
  2367                           ;incstack = 0
  2368                           ; Regs used in _I2C_Initialize: [wreg+status,2+status,0+pclath+cstack]
  2369                           
  2370                           
  2371                           ;./PIC16F877a_I2C.h: 10: void I2C_Initialize(const unsigned long feq_K);./PIC16F877a_I2C
      +                          .h: 11: {;./PIC16F877a_I2C.h: 12:   TRISC3 = 1; TRISC4 = 1;
  2372  039B  1683               	bsf	3,5	;RP0=1, select bank1
  2373  039C  1303               	bcf	3,6	;RP1=0, select bank1
  2374  039D  1587               	bsf	7,3	;volatile
  2375  039E  1607               	bsf	7,4	;volatile
  2376  039F                     l1426:	
  2377                           
  2378                           ;./PIC16F877a_I2C.h: 14:   SSPCON = 0b00101000;
  2379  039F  3028               	movlw	40
  2380  03A0  1283               	bcf	3,5	;RP0=0, select bank0
  2381  03A1  1303               	bcf	3,6	;RP1=0, select bank0
  2382  03A2  0094               	movwf	20	;volatile
  2383  03A3                     l1428:	
  2384                           
  2385                           ;./PIC16F877a_I2C.h: 15:   SSPCON2 = 0b00000000;
  2386  03A3  1683               	bsf	3,5	;RP0=1, select bank1
  2387  03A4  1303               	bcf	3,6	;RP1=0, select bank1
  2388  03A5  0191               	clrf	17	;volatile
  2389  03A6                     l1430:	
  2390                           
  2391                           ;./PIC16F877a_I2C.h: 17:   SSPADD = (16000000/(4*feq_K*100))-1;
  2392  03A6  1283               	bcf	3,5	;RP0=0, select bank0
  2393  03A7  1303               	bcf	3,6	;RP1=0, select bank0
  2394  03A8  084F               	movf	I2C_Initialize@feq_K,w
  2395  03A9  00D3               	movwf	??_I2C_Initialize
  2396  03AA  0850               	movf	I2C_Initialize@feq_K+1,w
  2397  03AB  00D4               	movwf	??_I2C_Initialize+1
  2398  03AC  0851               	movf	I2C_Initialize@feq_K+2,w
  2399  03AD  00D5               	movwf	??_I2C_Initialize+2
  2400  03AE  0852               	movf	I2C_Initialize@feq_K+3,w
  2401  03AF  00D6               	movwf	??_I2C_Initialize+3
  2402  03B0  3002               	movlw	2
  2403  03B1                     u1495:	
  2404  03B1  1003               	clrc
  2405  03B2  0DD3               	rlf	??_I2C_Initialize,f
  2406  03B3  0DD4               	rlf	??_I2C_Initialize+1,f
  2407  03B4  0DD5               	rlf	??_I2C_Initialize+2,f
  2408  03B5  0DD6               	rlf	??_I2C_Initialize+3,f
  2409  03B6                     u1490:	
  2410  03B6  3EFF               	addlw	-1
  2411  03B7  1D03               	skipz
  2412  03B8  2BB1               	goto	u1495
  2413  03B9  0856               	movf	??_I2C_Initialize+3,w
  2414  03BA  00F3               	movwf	___lmul@multiplier+3
  2415  03BB  0855               	movf	??_I2C_Initialize+2,w
  2416  03BC  00F2               	movwf	___lmul@multiplier+2
  2417  03BD  0854               	movf	??_I2C_Initialize+1,w
  2418  03BE  00F1               	movwf	___lmul@multiplier+1
  2419  03BF  0853               	movf	??_I2C_Initialize,w
  2420  03C0  00F0               	movwf	___lmul@multiplier
  2421  03C1  3000               	movlw	0
  2422  03C2  00F7               	movwf	___lmul@multiplicand+3
  2423  03C3  3000               	movlw	0
  2424  03C4  00F6               	movwf	___lmul@multiplicand+2
  2425  03C5  3000               	movlw	0
  2426  03C6  00F5               	movwf	___lmul@multiplicand+1
  2427  03C7  3064               	movlw	100
  2428  03C8  00F4               	movwf	___lmul@multiplicand
  2429  03C9  120A  118A  2355  120A  118A  	fcall	___lmul
  2430  03CE  0873               	movf	?___lmul+3,w
  2431  03CF  1283               	bcf	3,5	;RP0=0, select bank0
  2432  03D0  1303               	bcf	3,6	;RP1=0, select bank0
  2433  03D1  00C5               	movwf	___lldiv@divisor+3
  2434  03D2  0872               	movf	?___lmul+2,w
  2435  03D3  00C4               	movwf	___lldiv@divisor+2
  2436  03D4  0871               	movf	?___lmul+1,w
  2437  03D5  00C3               	movwf	___lldiv@divisor+1
  2438  03D6  0870               	movf	?___lmul,w
  2439  03D7  00C2               	movwf	___lldiv@divisor
  2440  03D8  3000               	movlw	0
  2441  03D9  00C9               	movwf	___lldiv@dividend+3
  2442  03DA  30F4               	movlw	244
  2443  03DB  00C8               	movwf	___lldiv@dividend+2
  2444  03DC  3024               	movlw	36
  2445  03DD  00C7               	movwf	___lldiv@dividend+1
  2446  03DE  3000               	movlw	0
  2447  03DF  00C6               	movwf	___lldiv@dividend
  2448  03E0  120A  118A  24AE  120A  118A  	fcall	___lldiv
  2449  03E5  1283               	bcf	3,5	;RP0=0, select bank0
  2450  03E6  1303               	bcf	3,6	;RP1=0, select bank0
  2451  03E7  0842               	movf	?___lldiv,w
  2452  03E8  3EFF               	addlw	255
  2453  03E9  1683               	bsf	3,5	;RP0=1, select bank1
  2454  03EA  1303               	bcf	3,6	;RP1=0, select bank1
  2455  03EB  0093               	movwf	19	;volatile
  2456  03EC                     l1432:	
  2457                           
  2458                           ;./PIC16F877a_I2C.h: 18:   SSPSTAT = 0b00000000;
  2459  03EC  0194               	clrf	20	;volatile
  2460  03ED                     l77:	
  2461  03ED  0008               	return
  2462  03EE                     __end_of_I2C_Initialize:	
  2463                           
  2464                           	psect	text12
  2465  0355                     __ptext12:	
  2466 ;; *************** function ___lmul *****************
  2467 ;; Defined at:
  2468 ;;		line 15 in file "E:\Applications\Microchip\xc8\v2.10\pic\sources\c90\common\Umul32.c"
  2469 ;; Parameters:    Size  Location     Type
  2470 ;;  multiplier      4    0[COMMON] unsigned long 
  2471 ;;  multiplicand    4    4[COMMON] unsigned long 
  2472 ;; Auto vars:     Size  Location     Type
  2473 ;;  product         4    9[COMMON] unsigned long 
  2474 ;; Return value:  Size  Location     Type
  2475 ;;                  4    0[COMMON] unsigned long 
  2476 ;; Registers used:
  2477 ;;		wreg, status,2, status,0
  2478 ;; Tracked objects:
  2479 ;;		On entry : 0/0
  2480 ;;		On exit  : 0/0
  2481 ;;		Unchanged: 0/0
  2482 ;; Data sizes:     COMMON   BANK0   BANK1   BANK3   BANK2
  2483 ;;      Params:         8       0       0       0       0
  2484 ;;      Locals:         4       0       0       0       0
  2485 ;;      Temps:          1       0       0       0       0
  2486 ;;      Totals:        13       0       0       0       0
  2487 ;;Total ram usage:       13 bytes
  2488 ;; Hardware stack levels used:    1
  2489 ;; This function calls:
  2490 ;;		Nothing
  2491 ;; This function is called by:
  2492 ;;		_I2C_Initialize
  2493 ;; This function uses a non-reentrant model
  2494 ;;
  2495                           
  2496                           
  2497                           ;psect for function ___lmul
  2498  0355                     ___lmul:	
  2499  0355                     l1386:	
  2500                           ;incstack = 0
  2501                           ; Regs used in ___lmul: [wreg+status,2+status,0]
  2502                           
  2503  0355  3000               	movlw	0
  2504  0356  00FC               	movwf	___lmul@product+3
  2505  0357  3000               	movlw	0
  2506  0358  00FB               	movwf	___lmul@product+2
  2507  0359  3000               	movlw	0
  2508  035A  00FA               	movwf	___lmul@product+1
  2509  035B  3000               	movlw	0
  2510  035C  00F9               	movwf	___lmul@product
  2511  035D                     l1388:	
  2512  035D  1C70               	btfss	___lmul@multiplier,0
  2513  035E  2B60               	goto	u1371
  2514  035F  2B61               	goto	u1370
  2515  0360                     u1371:	
  2516  0360  2B78               	goto	l1392
  2517  0361                     u1370:	
  2518  0361                     l1390:	
  2519  0361  0874               	movf	___lmul@multiplicand,w
  2520  0362  07F9               	addwf	___lmul@product,f
  2521  0363  0875               	movf	___lmul@multiplicand+1,w
  2522  0364  1103               	clrz
  2523  0365  1803               	skipnc
  2524  0366  3E01               	addlw	1
  2525  0367  1903               	skipnz
  2526  0368  2B6A               	goto	u1381
  2527  0369  07FA               	addwf	___lmul@product+1,f
  2528  036A                     u1381:	
  2529  036A  0876               	movf	___lmul@multiplicand+2,w
  2530  036B  1103               	clrz
  2531  036C  1803               	skipnc
  2532  036D  3E01               	addlw	1
  2533  036E  1903               	skipnz
  2534  036F  2B71               	goto	u1382
  2535  0370  07FB               	addwf	___lmul@product+2,f
  2536  0371                     u1382:	
  2537  0371  0877               	movf	___lmul@multiplicand+3,w
  2538  0372  1103               	clrz
  2539  0373  1803               	skipnc
  2540  0374  3E01               	addlw	1
  2541  0375  1903               	skipnz
  2542  0376  2B78               	goto	u1383
  2543  0377  07FC               	addwf	___lmul@product+3,f
  2544  0378                     u1383:	
  2545  0378                     l1392:	
  2546  0378  3001               	movlw	1
  2547  0379  00F8               	movwf	??___lmul
  2548  037A                     u1395:	
  2549  037A  1003               	clrc
  2550  037B  0DF4               	rlf	___lmul@multiplicand,f
  2551  037C  0DF5               	rlf	___lmul@multiplicand+1,f
  2552  037D  0DF6               	rlf	___lmul@multiplicand+2,f
  2553  037E  0DF7               	rlf	___lmul@multiplicand+3,f
  2554  037F  0BF8               	decfsz	??___lmul,f
  2555  0380  2B7A               	goto	u1395
  2556  0381                     l1394:	
  2557  0381  3001               	movlw	1
  2558  0382                     u1405:	
  2559  0382  1003               	clrc
  2560  0383  0CF3               	rrf	___lmul@multiplier+3,f
  2561  0384  0CF2               	rrf	___lmul@multiplier+2,f
  2562  0385  0CF1               	rrf	___lmul@multiplier+1,f
  2563  0386  0CF0               	rrf	___lmul@multiplier,f
  2564  0387  3EFF               	addlw	-1
  2565  0388  1D03               	skipz
  2566  0389  2B82               	goto	u1405
  2567  038A  0873               	movf	___lmul@multiplier+3,w
  2568  038B  0472               	iorwf	___lmul@multiplier+2,w
  2569  038C  0471               	iorwf	___lmul@multiplier+1,w
  2570  038D  0470               	iorwf	___lmul@multiplier,w
  2571  038E  1D03               	skipz
  2572  038F  2B91               	goto	u1411
  2573  0390  2B92               	goto	u1410
  2574  0391                     u1411:	
  2575  0391  2B5D               	goto	l1388
  2576  0392                     u1410:	
  2577  0392                     l1396:	
  2578  0392  087C               	movf	___lmul@product+3,w
  2579  0393  00F3               	movwf	?___lmul+3
  2580  0394  087B               	movf	___lmul@product+2,w
  2581  0395  00F2               	movwf	?___lmul+2
  2582  0396  087A               	movf	___lmul@product+1,w
  2583  0397  00F1               	movwf	?___lmul+1
  2584  0398  0879               	movf	___lmul@product,w
  2585  0399  00F0               	movwf	?___lmul
  2586  039A                     l262:	
  2587  039A  0008               	return
  2588  039B                     __end_of___lmul:	
  2589                           
  2590                           	psect	text13
  2591  04AE                     __ptext13:	
  2592 ;; *************** function ___lldiv *****************
  2593 ;; Defined at:
  2594 ;;		line 5 in file "E:\Applications\Microchip\xc8\v2.10\pic\sources\c90\common\__lldiv.c"
  2595 ;; Parameters:    Size  Location     Type
  2596 ;;  divisor         4    0[BANK0 ] unsigned long 
  2597 ;;  dividend        4    4[BANK0 ] unsigned long 
  2598 ;; Auto vars:     Size  Location     Type
  2599 ;;  quotient        4    8[BANK0 ] unsigned long 
  2600 ;;  counter         1   12[BANK0 ] unsigned char 
  2601 ;; Return value:  Size  Location     Type
  2602 ;;                  4    0[BANK0 ] unsigned long 
  2603 ;; Registers used:
  2604 ;;		wreg, status,2, status,0
  2605 ;; Tracked objects:
  2606 ;;		On entry : 0/0
  2607 ;;		On exit  : 0/0
  2608 ;;		Unchanged: 0/0
  2609 ;; Data sizes:     COMMON   BANK0   BANK1   BANK3   BANK2
  2610 ;;      Params:         0       8       0       0       0
  2611 ;;      Locals:         0       5       0       0       0
  2612 ;;      Temps:          1       0       0       0       0
  2613 ;;      Totals:         1      13       0       0       0
  2614 ;;Total ram usage:       14 bytes
  2615 ;; Hardware stack levels used:    1
  2616 ;; This function calls:
  2617 ;;		Nothing
  2618 ;; This function is called by:
  2619 ;;		_I2C_Initialize
  2620 ;; This function uses a non-reentrant model
  2621 ;;
  2622                           
  2623                           
  2624                           ;psect for function ___lldiv
  2625  04AE                     ___lldiv:	
  2626  04AE                     l1400:	
  2627                           ;incstack = 0
  2628                           ; Regs used in ___lldiv: [wreg+status,2+status,0]
  2629                           
  2630  04AE  3000               	movlw	0
  2631  04AF  1283               	bcf	3,5	;RP0=0, select bank0
  2632  04B0  1303               	bcf	3,6	;RP1=0, select bank0
  2633  04B1  00CD               	movwf	___lldiv@quotient+3
  2634  04B2  3000               	movlw	0
  2635  04B3  00CC               	movwf	___lldiv@quotient+2
  2636  04B4  3000               	movlw	0
  2637  04B5  00CB               	movwf	___lldiv@quotient+1
  2638  04B6  3000               	movlw	0
  2639  04B7  00CA               	movwf	___lldiv@quotient
  2640  04B8  0845               	movf	___lldiv@divisor+3,w
  2641  04B9  0444               	iorwf	___lldiv@divisor+2,w
  2642  04BA  0443               	iorwf	___lldiv@divisor+1,w
  2643  04BB  0442               	iorwf	___lldiv@divisor,w
  2644  04BC  1903               	skipnz
  2645  04BD  2CBF               	goto	u1421
  2646  04BE  2CC0               	goto	u1420
  2647  04BF                     u1421:	
  2648  04BF  2D0D               	goto	l1420
  2649  04C0                     u1420:	
  2650  04C0                     l1402:	
  2651  04C0  01CE               	clrf	___lldiv@counter
  2652  04C1  0ACE               	incf	___lldiv@counter,f
  2653  04C2  2CD0               	goto	l1406
  2654  04C3                     l1404:	
  2655  04C3  3001               	movlw	1
  2656  04C4  00FD               	movwf	??___lldiv
  2657  04C5                     u1435:	
  2658  04C5  1003               	clrc
  2659  04C6  0DC2               	rlf	___lldiv@divisor,f
  2660  04C7  0DC3               	rlf	___lldiv@divisor+1,f
  2661  04C8  0DC4               	rlf	___lldiv@divisor+2,f
  2662  04C9  0DC5               	rlf	___lldiv@divisor+3,f
  2663  04CA  0BFD               	decfsz	??___lldiv,f
  2664  04CB  2CC5               	goto	u1435
  2665  04CC  3001               	movlw	1
  2666  04CD  00FD               	movwf	??___lldiv
  2667  04CE  087D               	movf	??___lldiv,w
  2668  04CF  07CE               	addwf	___lldiv@counter,f
  2669  04D0                     l1406:	
  2670  04D0  1FC5               	btfss	___lldiv@divisor+3,7
  2671  04D1  2CD3               	goto	u1441
  2672  04D2  2CD4               	goto	u1440
  2673  04D3                     u1441:	
  2674  04D3  2CC3               	goto	l1404
  2675  04D4                     u1440:	
  2676  04D4                     l1408:	
  2677  04D4  3001               	movlw	1
  2678  04D5  00FD               	movwf	??___lldiv
  2679  04D6                     u1455:	
  2680  04D6  1003               	clrc
  2681  04D7  0DCA               	rlf	___lldiv@quotient,f
  2682  04D8  0DCB               	rlf	___lldiv@quotient+1,f
  2683  04D9  0DCC               	rlf	___lldiv@quotient+2,f
  2684  04DA  0DCD               	rlf	___lldiv@quotient+3,f
  2685  04DB  0BFD               	decfsz	??___lldiv,f
  2686  04DC  2CD6               	goto	u1455
  2687  04DD                     l1410:	
  2688  04DD  0845               	movf	___lldiv@divisor+3,w
  2689  04DE  0249               	subwf	___lldiv@dividend+3,w
  2690  04DF  1D03               	skipz
  2691  04E0  2CEB               	goto	u1465
  2692  04E1  0844               	movf	___lldiv@divisor+2,w
  2693  04E2  0248               	subwf	___lldiv@dividend+2,w
  2694  04E3  1D03               	skipz
  2695  04E4  2CEB               	goto	u1465
  2696  04E5  0843               	movf	___lldiv@divisor+1,w
  2697  04E6  0247               	subwf	___lldiv@dividend+1,w
  2698  04E7  1D03               	skipz
  2699  04E8  2CEB               	goto	u1465
  2700  04E9  0842               	movf	___lldiv@divisor,w
  2701  04EA  0246               	subwf	___lldiv@dividend,w
  2702  04EB                     u1465:	
  2703  04EB  1C03               	skipc
  2704  04EC  2CEE               	goto	u1461
  2705  04ED  2CEF               	goto	u1460
  2706  04EE                     u1461:	
  2707  04EE  2CFE               	goto	l1416
  2708  04EF                     u1460:	
  2709  04EF                     l1412:	
  2710  04EF  0842               	movf	___lldiv@divisor,w
  2711  04F0  02C6               	subwf	___lldiv@dividend,f
  2712  04F1  0843               	movf	___lldiv@divisor+1,w
  2713  04F2  1C03               	skipc
  2714  04F3  0F43               	incfsz	___lldiv@divisor+1,w
  2715  04F4  02C7               	subwf	___lldiv@dividend+1,f
  2716  04F5  0844               	movf	___lldiv@divisor+2,w
  2717  04F6  1C03               	skipc
  2718  04F7  0F44               	incfsz	___lldiv@divisor+2,w
  2719  04F8  02C8               	subwf	___lldiv@dividend+2,f
  2720  04F9  0845               	movf	___lldiv@divisor+3,w
  2721  04FA  1C03               	skipc
  2722  04FB  0F45               	incfsz	___lldiv@divisor+3,w
  2723  04FC  02C9               	subwf	___lldiv@dividend+3,f
  2724  04FD                     l1414:	
  2725  04FD  144A               	bsf	___lldiv@quotient,0
  2726  04FE                     l1416:	
  2727  04FE  3001               	movlw	1
  2728  04FF                     u1475:	
  2729  04FF  1003               	clrc
  2730  0500  0CC5               	rrf	___lldiv@divisor+3,f
  2731  0501  0CC4               	rrf	___lldiv@divisor+2,f
  2732  0502  0CC3               	rrf	___lldiv@divisor+1,f
  2733  0503  0CC2               	rrf	___lldiv@divisor,f
  2734  0504  3EFF               	addlw	-1
  2735  0505  1D03               	skipz
  2736  0506  2CFF               	goto	u1475
  2737  0507                     l1418:	
  2738  0507  3001               	movlw	1
  2739  0508  02CE               	subwf	___lldiv@counter,f
  2740  0509  1D03               	btfss	3,2
  2741  050A  2D0C               	goto	u1481
  2742  050B  2D0D               	goto	u1480
  2743  050C                     u1481:	
  2744  050C  2CD4               	goto	l1408
  2745  050D                     u1480:	
  2746  050D                     l1420:	
  2747  050D  084D               	movf	___lldiv@quotient+3,w
  2748  050E  00C5               	movwf	?___lldiv+3
  2749  050F  084C               	movf	___lldiv@quotient+2,w
  2750  0510  00C4               	movwf	?___lldiv+2
  2751  0511  084B               	movf	___lldiv@quotient+1,w
  2752  0512  00C3               	movwf	?___lldiv+1
  2753  0513  084A               	movf	___lldiv@quotient,w
  2754  0514  00C2               	movwf	?___lldiv
  2755  0515                     l284:	
  2756  0515  0008               	return
  2757  0516                     __end_of___lldiv:	
  2758  007E                     btemp	set	126	;btemp
  2759  007E                     wtemp0	set	126


Data Sizes:
    Strings     0
    Constant    0
    Data        34
    BSS         12
    Persistent  0
    Stack       0

Auto Spaces:
    Space          Size  Autos    Used
    COMMON           14     14      14
    BANK0            80     23      69
    BANK1            80      0       0
    BANK3            96      0       0
    BANK2            96      0       0

Pointer List with Targets:

    None.

Critical Paths under _main in COMMON

    _Update_Current_Date_Time->_BCD_2_DEC
    _BCD_2_DEC->_I2C_Read
    _BCD_2_DEC->___wmul
    _I2C_Initialize->___lldiv
    ___lldiv->___lmul

Critical Paths under _main in BANK0

    _main->_I2C_Initialize
    _I2C_Initialize->___lldiv

Critical Paths under _main in BANK1

    None.

Critical Paths under _main in BANK3

    None.

Critical Paths under _main in BANK2

    None.

Call Graph Tables:

 ---------------------------------------------------------------------------------
 (Depth) Function   	        Calls       Base Space   Used Autos Params    Refs
 ---------------------------------------------------------------------------------
 (0) _main                                                 2     2      0    4571
                                             21 BANK0      2     2      0
                     _I2C_Initialize
           _Update_Current_Date_Time
                            ___awdiv
                            ___awmod
 ---------------------------------------------------------------------------------
 (1) ___awmod                                              7     3      4     752
                                              0 COMMON     7     3      4
 ---------------------------------------------------------------------------------
 (1) ___awdiv                                              9     5      4     756
                                              0 COMMON     9     5      4
 ---------------------------------------------------------------------------------
 (1) _Update_Current_Date_Time                             0     0      0    2407
                          _BCD_2_DEC
                          _I2C_Begin
                            _I2C_End
                           _I2C_Read
                          _I2C_Write
 ---------------------------------------------------------------------------------
 (2) _I2C_Write                                            2     0      2    1010
                                              0 COMMON     2     0      2
                           _I2C_Hold
 ---------------------------------------------------------------------------------
 (2) _I2C_Read                                             6     4      2     653
                                              0 COMMON     6     4      2
                           _I2C_Hold
 ---------------------------------------------------------------------------------
 (2) _I2C_End                                              0     0      0       0
                           _I2C_Hold
 ---------------------------------------------------------------------------------
 (2) _I2C_Begin                                            0     0      0       0
                           _I2C_Hold
 ---------------------------------------------------------------------------------
 (3) _I2C_Hold                                             0     0      0       0
 ---------------------------------------------------------------------------------
 (2) _BCD_2_DEC                                            4     2      2     744
                                              6 COMMON     4     2      2
                           _I2C_Read (ARG)
                             ___wmul
 ---------------------------------------------------------------------------------
 (3) ___wmul                                               6     2      4     244
                                              0 COMMON     6     2      4
 ---------------------------------------------------------------------------------
 (1) _I2C_Initialize                                       8     4      4     656
                                             13 BANK0      8     4      4
                            ___lldiv
                             ___lmul
 ---------------------------------------------------------------------------------
 (2) ___lmul                                              13     5      8     244
                                              0 COMMON    13     5      8
 ---------------------------------------------------------------------------------
 (2) ___lldiv                                             14     6      8     314
                                             13 COMMON     1     1      0
                                              0 BANK0     13     5      8
                             ___lmul (ARG)
 ---------------------------------------------------------------------------------
 Estimated maximum stack depth 3
 ---------------------------------------------------------------------------------

 Call Graph Graphs:

 _main (ROOT)
   _I2C_Initialize
     ___lldiv
       ___lmul (ARG)
     ___lmul
   _Update_Current_Date_Time
     _BCD_2_DEC
       _I2C_Read (ARG)
         _I2C_Hold
       ___wmul (ARG)
     _I2C_Begin
       _I2C_Hold
     _I2C_End
       _I2C_Hold
     _I2C_Read
       _I2C_Hold
     _I2C_Write
       _I2C_Hold
   ___awdiv
   ___awmod

 Address spaces:
Name               Size   Autos  Total    Cost      Usage
BANK3               60      0       0       9        0.0%
BITBANK3            60      0       0       8        0.0%
SFR3                 0      0       0       4        0.0%
BITSFR3              0      0       0       4        0.0%
BANK2               60      0       0      11        0.0%
BITBANK2            60      0       0      10        0.0%
SFR2                 0      0       0       5        0.0%
BITSFR2              0      0       0       5        0.0%
BANK1               50      0       0       7        0.0%
BITBANK1            50      0       0       6        0.0%
SFR1                 0      0       0       2        0.0%
BITSFR1              0      0       0       2        0.0%
BANK0               50     17      45       5       86.3%
BITBANK0            50      0       0       4        0.0%
SFR0                 0      0       0       1        0.0%
BITSFR0              0      0       0       1        0.0%
COMMON               E      E       E       1      100.0%
BITCOMMON            E      0       0       0        0.0%
CODE                 0      0       0       0        0.0%
DATA                 0      0      53      12        0.0%
ABS                  0      0      53       3        0.0%
NULL                 0      0       0       0        0.0%
STACK                0      0       0       2        0.0%
EEDATA             100      0       0       0        0.0%


Microchip Technology PIC Macro Assembler V2.10 build 88905656 
Symbol Table                                                                                   Mon Sep 28 22:59:54 2020

               __size_of_I2C_Begin 0009                                  pc 0002  
                      __CFG_CP$OFF 0000                 __size_of_I2C_Write 000A  
                               l83 02A8                                 l92 029B  
                               l77 03ED                                 l86 0288  
                               l95 0354                                 l89 0291  
                               l98 0327                                 _h1 005B  
                               _h2 0059                                 _m1 005F  
                               _m2 005D                       ___awdiv@sign 0076  
                               _s1 0063                                 _s2 0061  
                               fsr 0004                ___wmul@multiplicand 0072  
                              l107 05F9                                l401 04AD  
                              l250 0302                                l148 0754  
                              l262 039A                                l414 0446  
                              l248 02EA                                l284 0515  
                              _RB0 0030                                _RB1 0031  
                              _RB2 0032                                _RB3 0033  
                              _RB4 0034                                _RB5 0035  
                              _PEN 048A                       __CFG_CPD$OFF 0000  
                              _SEN 0488                                _dly 0034  
                  __end_of_I2C_End 0292                                _min 003E  
                              _sec 0040                                _seg 0020  
                              fsr0 0004                                indf 0000  
                     ___awmod@sign 0076                       __CFG_FOSC$HS 0000  
                     __CFG_LVP$OFF 0000                               l1400 04AE  
                             l1410 04DD                               l1402 04C0  
                             l1412 04EF                               l1404 04C3  
                             l1420 050D                               l1340 02DE  
                             l1500 040C                               l1414 04FD  
                             l1406 04D0                               l1430 03A6  
                             l1350 02FE                               l1342 02E0  
                             l1334 029C                               l1510 042B  
                             l1502 0413                               l1416 04FE  
                             l1408 04D4                               l1432 03EC  
                             l1424 039B                               l1344 02E4  
                             l1336 029C                               l1360 028E  
                             l1440 0447                               l1512 0432  
                             l1504 0417                               l1418 0507  
                             l1426 039F                               l1346 02F1  
                             l1338 02A4                               l1354 0280  
                             l1370 0335                               l1362 0292  
                             l1450 0457                               l1442 0448  
                             l1506 041B                               l1514 0438  
                             l1610 0712                               l1602 06FF  
                             l1530 0618                               l1428 03A3  
                             l1348 02F8                               l1356 0285  
                             l1372 033E                               l1364 0297  
                             l1460 046B                               l1452 045C  
                             l1444 044C                               l1516 043D  
                             l1508 0425                               l1620 072E  
                             l1612 0719                               l1604 0706  
                             l1540 066C                               l1532 062D  
                             l1524 05FA                               l1390 0361  
                             l1382 0303                               l1358 0289  
                             l1374 0343                               l1366 0328  
                             l1438 0516                               l1470 0491  
                             l1462 0472                               l1454 0460  
                             l1446 0451                               l1518 0442  
                             l1622 0735                               l1614 0720  
                             l1606 070D                               l1550 0688  
                             l1630 0754                               l1542 0673  
                             l1534 0640                               l1526 0606  
                             l1392 0378                               l1376 034F  
                             l1368 032D                               l1480 04A9  
                             l1472 0492                               l1464 0476  
                             l1456 0462                               l1448 0453  
                             l1640 0774                               l1632 075C  
                             l1624 073E                               l1616 0722  
                             l1544 0677                               l1536 0653  
                             l1528 0613                               l1394 0381  
                             l1386 0355                               l1378 0350  
                             l1474 0499                               l1466 047A  
                             l1458 0468                               l1490 03F8  
                             l1650 0799                               l1642 077F  
                             l1634 075D                               l1626 0745  
                             l1618 0727                               l1570 06B3  
                             l1562 06A0                               l1554 068D  
                             l1546 067A                               l1538 0666  
                             l1396 0392                               l1388 035D  
                             l1468 048B                               l1476 049F  
                             l1492 03FA                               l1484 03EE  
                             l1660 07B9                               l1652 07A1  
                             l1644 0782                               l1636 0768  
                             l1628 074B                               l1580 06CD  
                             l1572 06BA                               l1564 06A7  
                             l1556 0694                               l1548 0681  
                             l1478 04A4                               l1494 03FE  
                             l1486 03EF                               l1662 07C4  
                             l1654 07A2                               l1646 078A  
                             l1638 0773                               l1590 06E7  
                             l1582 06D4                               l1574 06C1  
                             l1566 06AE                               l1558 069B  
                             l1496 0403                               l1488 03F3  
                             l1664 07C7                               l1656 07AD  
                             l1648 0796                               l1498 0409  
                             l1666 07CF                               l1658 07B8  
                             l1594 06EC                               l1586 06D9  
                             l1578 06C6                               l1668 07DB  
                             l1596 06F3                               l1588 06E0  
                             l1598 06FA                               u1300 02A8  
                             u1301 02A7                               u1310 02E4  
                             u1311 02E3                               u1410 0392  
                             u1411 0391                               u1420 04C0  
                             u1340 02FE                               u1500 044C  
                             u1421 04BF                               u1405 0382  
                             u1341 02FD                               u1325 02EB  
                             u1501 044B                               u1350 034C  
                             u1510 0457                               u1335 02F2  
                             u1351 0348                               u1511 0456  
                             u1440 04D4                               u1520 0468  
                             u1600 03F3                               u1441 04D3  
                             u1521 0467                               u1601 03F2  
                             u1370 0361                               u1290 02A4  
                             u1610 03FE                               u1435 04C5  
                             u1371 0360                               u1291 02A3  
                             u1611 03FD                               u1460 04EF  
                             u1364 034F                               u1540 047A  
                             u1620 0409                               u1700 0673  
                             u1461 04EE                               u1381 036A  
                             u1541 0479                               u1621 0408  
                             u1701 0672                               u1382 0371  
                             u1710 0681                               u1455 04D6  
                             u1383 0378                               u1535 046C  
                             u1711 0680                               u1480 050D  
                             u1560 048B                               u1640 041B  
                             u1800 06D4                               u1720 0688  
                             u1481 050C                               u1465 04EB  
                             u1561 048A                               u1641 041A  
                             u1801 06D3                               u1721 0687  
                             u1490 03B6                               u1650 0425  
                             u1810 06E0                               u1730 0694  
                             u1475 04FF                               u1395 037A  
                             u1555 047B                               u1651 0424  
                             u1635 040D                               u1811 06DF  
                             u1731 0693                               u1580 049F  
                             u1900 0735                               u1820 06E7  
                             u1740 069B                               u1581 049E  
                             u1565 0487                               u1901 0734  
                             u1821 06E6                               u1741 069A  
                             u1590 04A4                               u1670 0438  
                             u1910 0745                               u1830 06F3  
                             u1750 06A7                               u1495 03B1  
                             u1591 04A3                               u1575 0493  
                             u1671 0437                               u1655 0421  
                             u2607 07A8                               u1911 0744  
                             u1831 06F2                               u1751 06A6  
                             u1680 043D                               u1920 074B  
                             u1840 06FA                               u1760 06AE  
                             u1681 043C                               u1665 042C  
                             u2617 07BF                               u1921 074A  
                             u1841 06F9                               u1761 06AD  
                             u1850 0706                               u1770 06BA  
                             u1690 066C                               u2627 07D6  
                             u1851 0705                               u1771 06B9  
                             u1691 066B                               u1860 070D  
                             u1780 06C1                               u1861 070C  
                             u1781 06C0                               u1870 0719  
                             u1790 06CD                               u1871 0718  
                             u1791 06CC                               u1880 0720  
                             u2577 0763                               u1881 071F  
                             u1890 072E                               u2587 077A  
                             u1891 072D                               u2597 0791  
                             _RCEN 048B                       __CFG_WRT$OFF 0000  
                             _date 003A                               _main 05FA  
                             _hour 003C                   __end_of_I2C_Hold 02A9  
                 __end_of_I2C_Read 0355                               _year 0036  
                             btemp 007E                      __CFG_BOREN$ON 0000  
                             start 0000                              ?_main 0070  
                            _ACKEN 048C                              _ACKDT 048D  
                  __end_of___awdiv 04AE                      __CFG_WDTE$OFF 0000  
                  __end_of___awmod 0447                    __end_of___lldiv 0516  
                  ___awdiv@divisor 0070                    ___awdiv@counter 0075  
                            _PORTB 0006                              _PORTD 0008  
                            _TRISB 0086                              _TRISD 0088  
              ___lmul@multiplicand 0074                      __CFG_PWRTE$ON 0000  
                __end_of_BCD_2_DEC 0328                  __end_of_I2C_Begin 0289  
                            _month 0038                  __end_of_I2C_Write 029C  
                            pclath 000A                              status 0003  
                            wtemp0 007E                    __initialization 07E2  
                     __end_of_main 07E2                          ??_I2C_End 0070  
                           ??_main 0057                   ___awdiv@dividend 0072  
                           _SSPADD 0093                             _TRISC3 043B  
                           _TRISC4 043C                             _SSPCON 0014  
                           _SSPBUF 0013                             ___lmul 0355  
                           ___wmul 02DE                          ??___awdiv 0074  
                        ??___awmod 0074                          ??___lldiv 007D  
                 ___awdiv@quotient 0077                    ___awmod@divisor 0070  
                  ___awmod@counter 0075            __size_of_I2C_Initialize 0053  
 __end_of_Update_Current_Date_Time 05FA                          ?_I2C_Hold 0070  
                        ?_I2C_Read 0070            __end_of__initialization 07FC  
                   __pcstackCOMMON 0070                       __pidataBANK0 02BC  
                       ??_I2C_Hold 0070                         ??_I2C_Read 0072  
                       __pbssBANK0 0059                         __pmaintext 05FA  
                          ?___lmul 0070                            ?___wmul 0070  
                          _I2C_End 0289                     ___lmul@product 0079  
                 I2C_Read@incoming 0074           _Update_Current_Date_Time 0516  
                          _SSPCON2 0091                            _SSPSTAT 0094  
                        _BCD_2_DEC 0303                          _I2C_Begin 0280  
                        _I2C_Write 0292                            ___awdiv 0447  
                  __size_of___lmul 0046                            ___awmod 03EE  
                          ___lldiv 04AE                    __size_of___wmul 0025  
                   _I2C_Initialize 039B                            __ptext1 03EE  
                          __ptext2 0447                            __ptext3 0516  
                          __ptext4 0292                            __ptext5 0328  
                          __ptext6 0289                            __ptext7 0280  
                          __ptext8 029C                            __ptext9 0303  
                 ___awmod@dividend 0072               end_of_initialization 07FC  
                       ?_BCD_2_DEC 0076                         ?_I2C_Begin 0070  
                       ?_I2C_Write 0070                    ___lldiv@divisor 0042  
                  ___lldiv@counter 004E             __end_of_I2C_Initialize 03EE  
                __size_of_I2C_Hold 000D                  __size_of_I2C_Read 002D  
              BCD_2_DEC@to_convert 0076                    ?_I2C_Initialize 004F  
                   __end_of___lmul 039B                     __end_of___wmul 0303  
              start_initialization 07E2                        ??_BCD_2_DEC 0078  
                      ??_I2C_Begin 0070                        ??_I2C_Write 0072  
                         ??___lmul 0078                           ??___wmul 0074  
                       init_fetch0 02A9                        __pdataBANK0 0020  
                         ?_I2C_End 0070         ??_Update_Current_Date_Time 007A  
                        ___latbits 0002                      __pcstackBANK0 0042  
                      I2C_Read@ack 0070                           ?___awdiv 0070  
                         ?___awmod 0070                           ?___lldiv 0042  
                         _I2C_Hold 029C                           _I2C_Read 0328  
                   ___wmul@product 0074                   __size_of_I2C_End 0009  
                ___wmul@multiplier 0070                  ___lmul@multiplier 0070  
                 ??_I2C_Initialize 0053                      I2C_Write@data 0070  
                 __size_of___awdiv 0067                   __size_of___awmod 0059  
                 __size_of___lldiv 0068                           __ptext10 02DE  
                         __ptext11 039B                           __ptext12 0355  
                         __ptext13 04AE                      __size_of_main 01E8  
              I2C_Initialize@feq_K 004F                           init_ram0 02AD  
                 ___lldiv@dividend 0046                   ___lldiv@quotient 004A  
__size_of_Update_Current_Date_Time 00E4          ?_Update_Current_Date_Time 0070  
               __size_of_BCD_2_DEC 0025  
